---
triple:          'x86_64-apple-darwin'
binary-path:     'bin/main'
relocations:
  - { offsetInCU: 0x52, offset: 0x52, size: 0x8, addend: 0x0, symName: __ZL2rd, symObjAddr: 0x13B9D8, symBinAddr: 0x100079068, symSize: 0x0 }
  - { offsetInCU: 0x7576, offset: 0x7576, size: 0x8, addend: 0x0, symName: __ZNSt3__119piecewise_constructE, symObjAddr: 0x4ED86, symBinAddr: 0x10004FB56, symSize: 0x0 }
  - { offsetInCU: 0x75A7, offset: 0x75A7, size: 0x8, addend: 0x0, symName: __ZNSt3__17nulloptE, symObjAddr: 0x453E2, symBinAddr: 0x1000461B2, symSize: 0x0 }
  - { offsetInCU: 0x9F99, offset: 0x9F99, size: 0x8, addend: 0x0, symName: __ZNSt3__111__introsortINS_17_ClassicAlgPolicyERZNK8Position11order_movesERNS_6vectorI4moveNS_9allocatorIS4_EEEEEUlRKS4_SA_E_PS4_Lb0EEEvT1_SE_T0_NS_15iterator_traitsISE_E15difference_typeEb, symObjAddr: 0x1BAA0, symBinAddr: 0x10001C400, symSize: 0x17C0 }
  - { offsetInCU: 0xA0C7, offset: 0xA0C7, size: 0x8, addend: 0x0, symName: __ZNSt3__126__insertion_sort_unguardedB8ue170006INS_17_ClassicAlgPolicyERZNK8Position11order_movesERNS_6vectorI4moveNS_9allocatorIS4_EEEEEUlRKS4_SA_E_PS4_EEvT1_SE_T0_, symObjAddr: 0x1D900, symBinAddr: 0x10001E260, symSize: 0x3F0 }
  - { offsetInCU: 0xA1B9, offset: 0xA1B9, size: 0x8, addend: 0x0, symName: __ZNSt3__111__sift_downB8ue170006INS_17_ClassicAlgPolicyERZNK8Position11order_movesERNS_6vectorI4moveNS_9allocatorIS4_EEEEEUlRKS4_SA_E_PS4_EEvT1_OT0_NS_15iterator_traitsISE_E15difference_typeESE_, symObjAddr: 0x21110, symBinAddr: 0x100021A70, symSize: 0x940 }
  - { offsetInCU: 0xA267, offset: 0xA267, size: 0x8, addend: 0x0, symName: __ZNSt3__117__floyd_sift_downB8ue170006INS_17_ClassicAlgPolicyERZNK8Position11order_movesERNS_6vectorI4moveNS_9allocatorIS4_EEEEEUlRKS4_SA_E_PS4_EET1_SE_OT0_NS_15iterator_traitsISE_E15difference_typeE, symObjAddr: 0x21E60, symBinAddr: 0x1000227C0, symSize: 0x440 }
  - { offsetInCU: 0xA2FF, offset: 0xA2FF, size: 0x8, addend: 0x0, symName: __ZNSt3__131__partition_with_equals_on_leftB8ue170006INS_17_ClassicAlgPolicyEP4moveRZNK8Position11order_movesERNS_6vectorIS2_NS_9allocatorIS2_EEEEEUlRKS2_SB_E_EET0_SE_SE_T1_, symObjAddr: 0x1E2A0, symBinAddr: 0x10001EC00, symSize: 0x6D0 }
  - { offsetInCU: 0xA3BB, offset: 0xA3BB, size: 0x8, addend: 0x0, symName: __ZNSt3__118__bitset_partitionB8ue170006INS_17_ClassicAlgPolicyEP4moveRZNK8Position11order_movesERNS_6vectorIS2_NS_9allocatorIS2_EEEEEUlRKS2_SB_E_EENS_4pairIT0_bEESF_SF_T1_, symObjAddr: 0x1E970, symBinAddr: 0x10001F2D0, symSize: 0x8E0 }
  - { offsetInCU: 0xA4B8, offset: 0xA4B8, size: 0x8, addend: 0x0, symName: __ZNSt3__124__swap_bitmap_pos_withinB8ue170006INS_17_ClassicAlgPolicyEP4moveEEvRT0_S5_RyS6_, symObjAddr: 0x23550, symBinAddr: 0x100023EB0, symSize: 0x4C0 }
  - { offsetInCU: 0xA585, offset: 0xA585, size: 0x8, addend: 0x0, symName: __ZNSt3__132__partition_with_equals_on_rightB8ue170006INS_17_ClassicAlgPolicyEP4moveRZNK8Position11order_movesERNS_6vectorIS2_NS_9allocatorIS2_EEEEEUlRKS2_SB_E_EENS_4pairIT0_bEESF_SF_T1_, symObjAddr: 0x1F250, symBinAddr: 0x10001FBB0, symSize: 0x690 }
  - { offsetInCU: 0xA652, offset: 0xA652, size: 0x8, addend: 0x0, symName: __ZNSt3__127__insertion_sort_incompleteB8ue170006INS_17_ClassicAlgPolicyERZNK8Position11order_movesERNS_6vectorI4moveNS_9allocatorIS4_EEEEEUlRKS4_SA_E_PS4_EEbT1_SE_T0_, symObjAddr: 0x1F8E0, symBinAddr: 0x100020240, symSize: 0xB30 }
  - { offsetInCU: 0xAA56, offset: 0xAA56, size: 0x8, addend: 0x0, symName: __ZNSt3__17advanceB8ue170006IP4movellvEEvRT_T0_, symObjAddr: 0x2A1A0, symBinAddr: 0x10002AB00, symSize: 0x70 }
  - { offsetInCU: 0xAEE3, offset: 0xAEE3, size: 0x8, addend: 0x0, symName: __ZNSt3__16chronomiB8ue170006IxNS_5ratioILl1ELl1000000000EEExS3_EENS_11common_typeIJNS0_8durationIT_T0_EENS5_IT1_T2_EEEE4typeERKS8_RKSB_, symObjAddr: 0x2BCA0, symBinAddr: 0x10002C600, symSize: 0xA0 }
  - { offsetInCU: 0xB284, offset: 0xB284, size: 0x8, addend: 0x0, symName: __ZNSt3__16chronomlB8ue170006IxNS_5ratioILl1ELl1EEEiEENS_9enable_ifIXsr14is_convertibleIT1_NS_11common_typeIJT_S5_EE4typeEEE5valueENS0_8durationIS9_T0_EEE4typeERKNSA_IS7_SB_EERKS5_, symObjAddr: 0x34BE0, symBinAddr: 0x100035540, symSize: 0x90 }
  - { offsetInCU: 0xB6AC, offset: 0xB6AC, size: 0x8, addend: 0x0, symName: __ZNSt3__16chrono13duration_castB8ue170006INS0_8durationIxNS_5ratioILl1ELl1000EEEEExNS3_ILl1ELl1000000000EEEEENS_9enable_ifIXsr13__is_durationIT_EE5valueES8_E4typeERKNS2_IT0_T1_EE, symObjAddr: 0x4050, symBinAddr: 0x1000049B0, symSize: 0x70 }
  - { offsetInCU: 0xB6F3, offset: 0xB6F3, size: 0x8, addend: 0x0, symName: __ZNSt3__16chronomiB8ue170006INS0_12steady_clockENS0_8durationIxNS_5ratioILl1ELl1000000000EEEEES6_EENS_11common_typeIJT0_T1_EE4typeERKNS0_10time_pointIT_S8_EERKNSC_ISD_S9_EE, symObjAddr: 0x40C0, symBinAddr: 0x100004A20, symSize: 0xA0 }
  - { offsetInCU: 0xB74B, offset: 0xB74B, size: 0x8, addend: 0x0, symName: __ZNSt3__16chrono13duration_castB8ue170006INS0_8durationIxNS_5ratioILl1ELl1EEEEExNS3_ILl1ELl1000000000EEEEENS_9enable_ifIXsr13__is_durationIT_EE5valueES8_E4typeERKNS2_IT0_T1_EE, symObjAddr: 0x6C40, symBinAddr: 0x1000075A0, symSize: 0x70 }
  - { offsetInCU: 0xB792, offset: 0xB792, size: 0x8, addend: 0x0, symName: __ZNSt3__16chronomlB8ue170006IiNS_5ratioILl1ELl1EEExEENS_9enable_ifIXsr14is_convertibleIT_NS_11common_typeIJS5_T1_EE4typeEEE5valueENS0_8durationIS9_T0_EEE4typeERKS5_RKNSA_IS7_SB_EE, symObjAddr: 0x76C0, symBinAddr: 0x100008020, symSize: 0xA0 }
  - { offsetInCU: 0xEA4A, offset: 0xEA4A, size: 0x8, addend: 0x0, symName: __ZNSt3__17advanceB8ue170006IPK14position_timesllvEEvRT_T0_, symObjAddr: 0x355B0, symBinAddr: 0x100035F10, symSize: 0x70 }
  - { offsetInCU: 0xEAD5, offset: 0xEAD5, size: 0x8, addend: 0x0, symName: __ZNSt3__124__put_character_sequenceB8ue170006IcNS_11char_traitsIcEEEERNS_13basic_ostreamIT_T0_EES7_PKS4_m, symObjAddr: 0x374F0, symBinAddr: 0x100037E50, symSize: 0xB20 }
  - { offsetInCU: 0x1343C, offset: 0x1343C, size: 0x8, addend: 0x0, symName: __ZNSt3__117__cxx_atomic_loadB8ue170006IbEET_PKNS_22__cxx_atomic_base_implIS1_EENS_12memory_orderE, symObjAddr: 0x44440, symBinAddr: 0x100044DA0, symSize: 0xC0 }
  - { offsetInCU: 0x148DB, offset: 0x148DB, size: 0x8, addend: 0x0, symName: __ZNSt3__18literals15chrono_literalsli1sB8ue170006Ey, symObjAddr: 0x7760, symBinAddr: 0x1000080C0, symSize: 0x40 }
  - { offsetInCU: 0x15387, offset: 0x15387, size: 0x8, addend: 0x0, symName: __ZNSt3__1lsB8ue170006INS_11char_traitsIcEEEERNS_13basic_ostreamIcT_EES6_c, symObjAddr: 0x3FB0, symBinAddr: 0x100004910, symSize: 0xA0 }
  - { offsetInCU: 0x15856, offset: 0x15856, size: 0x8, addend: 0x0, symName: __ZNSt3__1lsB8ue170006INS_11char_traitsIcEEEERNS_13basic_ostreamIcT_EES6_PKc, symObjAddr: 0x4900, symBinAddr: 0x100005260, symSize: 0xB0 }
  - { offsetInCU: 0x15A72, offset: 0x15A72, size: 0x8, addend: 0x0, symName: __ZNSt3__113__countl_zeroB8ue170006IyEEiT_, symObjAddr: 0x9F60, symBinAddr: 0x10000A8C0, symSize: 0x70 }
  - { offsetInCU: 0x15ACB, offset: 0x15ACB, size: 0x8, addend: 0x0, symName: __ZNSt3__112__libcpp_clzB8ue170006Em, symObjAddr: 0xADE0, symBinAddr: 0x10000B740, symSize: 0x50 }
  - { offsetInCU: 0x15B2A, offset: 0x15B2A, size: 0x8, addend: 0x0, symName: __ZNSt3__110destroy_atB8ue170006INS_4pairIKy13zobrist_valueEELi0EEEvPT_, symObjAddr: 0xB9F0, symBinAddr: 0x10000C350, symSize: 0x30 }
  - { offsetInCU: 0x15B61, offset: 0x15B61, size: 0x8, addend: 0x0, symName: __ZNSt3__112__destroy_atB8ue170006INS_4pairIKy13zobrist_valueEELi0EEEvPT_, symObjAddr: 0xBA20, symBinAddr: 0x10000C380, symSize: 0x20 }
  - { offsetInCU: 0x15B98, offset: 0x15B98, size: 0x8, addend: 0x0, symName: __ZNSt3__17launderB8ue170006INS_4pairIKy13zobrist_valueEEEEPT_S6_, symObjAddr: 0xBAD0, symBinAddr: 0x10000C430, symSize: 0x30 }
  - { offsetInCU: 0x15BCF, offset: 0x15BCF, size: 0x8, addend: 0x0, symName: __ZNSt3__19__launderB8ue170006INS_4pairIKy13zobrist_valueEEEEPT_S6_, symObjAddr: 0xBB00, symBinAddr: 0x10000C460, symSize: 0x20 }
  - { offsetInCU: 0x15C06, offset: 0x15C06, size: 0x8, addend: 0x0, symName: __ZNSt3__119__libcpp_deallocateB8ue170006EPvmm, symObjAddr: 0xBB80, symBinAddr: 0x10000C4E0, symSize: 0x70 }
  - { offsetInCU: 0x15C6B, offset: 0x15C6B, size: 0x8, addend: 0x0, symName: __ZNSt3__124__is_overaligned_for_newB8ue170006Em, symObjAddr: 0xBBF0, symBinAddr: 0x10000C550, symSize: 0x20 }
  - { offsetInCU: 0x15C99, offset: 0x15C99, size: 0x8, addend: 0x0, symName: __ZNSt3__127__do_deallocate_handle_sizeB8ue170006IJSt11align_val_tEEEvPvmDpT_, symObjAddr: 0xBC10, symBinAddr: 0x10000C570, symSize: 0x30 }
  - { offsetInCU: 0x15CEC, offset: 0x15CEC, size: 0x8, addend: 0x0, symName: __ZNSt3__127__do_deallocate_handle_sizeB8ue170006IJEEEvPvmDpT_, symObjAddr: 0xBC40, symBinAddr: 0x10000C5A0, symSize: 0x30 }
  - { offsetInCU: 0x15D2A, offset: 0x15D2A, size: 0x8, addend: 0x0, symName: __ZNSt3__124__libcpp_operator_deleteB8ue170006IJPvSt11align_val_tEEEvDpT_, symObjAddr: 0xBC70, symBinAddr: 0x10000C5D0, symSize: 0x30 }
  - { offsetInCU: 0x15D73, offset: 0x15D73, size: 0x8, addend: 0x0, symName: __ZNSt3__124__libcpp_operator_deleteB8ue170006IJPvEEEvDpT_, symObjAddr: 0xBCA0, symBinAddr: 0x10000C600, symSize: 0x30 }
  - { offsetInCU: 0x15DA8, offset: 0x15DA8, size: 0x8, addend: 0x0, symName: __ZNSt3__112__to_addressB8ue170006IcEEPT_S2_, symObjAddr: 0xCEC0, symBinAddr: 0x10000D820, symSize: 0x20 }
  - { offsetInCU: 0x15DDD, offset: 0x15DDD, size: 0x8, addend: 0x0, symName: __ZNSt3__118__constexpr_strlenB8ue170006EPKc, symObjAddr: 0xD980, symBinAddr: 0x10000E2E0, symSize: 0x30 }
  - { offsetInCU: 0x15E2F, offset: 0x15E2F, size: 0x8, addend: 0x0, symName: __ZNSt3__112construct_atB8ue170006IaJiEPaEEPT_S3_DpOT0_, symObjAddr: 0xDB10, symBinAddr: 0x10000E470, symSize: 0xB0 }
  - { offsetInCU: 0x15EC7, offset: 0x15EC7, size: 0x8, addend: 0x0, symName: __ZNSt3__112construct_atB8ue170006I5pieceJS1_EPS1_EEPT_S4_DpOT0_, symObjAddr: 0xE1C0, symBinAddr: 0x10000EB20, symSize: 0x80 }
  - { offsetInCU: 0x15F39, offset: 0x15F39, size: 0x8, addend: 0x0, symName: __ZNSt3__13minB8ue170006ImEERKT_S3_S3_, symObjAddr: 0xFBD0, symBinAddr: 0x100010530, symSize: 0xD0 }
  - { offsetInCU: 0x16166, offset: 0x16166, size: 0x8, addend: 0x0, symName: __ZNSt3__13minB8ue170006ImNS_6__lessIvvEEEERKT_S5_S5_T0_, symObjAddr: 0xFDC0, symBinAddr: 0x100010720, symSize: 0x100 }
  - { offsetInCU: 0x16237, offset: 0x16237, size: 0x8, addend: 0x0, symName: __ZNSt3__120__throw_length_errorB8ue170006EPKc, symObjAddr: 0x100B0, symBinAddr: 0x100010A10, symSize: 0xA0 }
  - { offsetInCU: 0x16261, offset: 0x16261, size: 0x8, addend: 0x0, symName: __ZNSt3__119__allocate_at_leastB8ue170006INS_9allocatorI4moveEEEEDaRT_m, symObjAddr: 0x10660, symBinAddr: 0x100010FC0, symSize: 0x60 }
  - { offsetInCU: 0x162A4, offset: 0x162A4, size: 0x8, addend: 0x0, symName: __ZNSt3__117allocate_at_leastB8ue170006INS_9allocatorI4moveEEEENS_17allocation_resultINS_16allocator_traitsIT_E7pointerEEERS6_m, symObjAddr: 0x109E0, symBinAddr: 0x100011340, symSize: 0x40 }
  - { offsetInCU: 0x162E7, offset: 0x162E7, size: 0x8, addend: 0x0, symName: __ZNSt3__117__libcpp_allocateB8ue170006Emm, symObjAddr: 0x10BA0, symBinAddr: 0x100011500, symSize: 0x70 }
  - { offsetInCU: 0x16341, offset: 0x16341, size: 0x8, addend: 0x0, symName: __ZNSt3__121__libcpp_operator_newB8ue170006IJmSt11align_val_tEEEPvDpT_, symObjAddr: 0x10C10, symBinAddr: 0x100011570, symSize: 0x70 }
  - { offsetInCU: 0x1638E, offset: 0x1638E, size: 0x8, addend: 0x0, symName: __ZNSt3__121__libcpp_operator_newB8ue170006IJmEEEPvDpT_, symObjAddr: 0x10C80, symBinAddr: 0x1000115E0, symSize: 0x30 }
  - { offsetInCU: 0x163C7, offset: 0x163C7, size: 0x8, addend: 0x0, symName: __ZNSt3__142__uninitialized_allocator_move_if_noexceptB8ue170006INS_9allocatorI4moveEENS_16reverse_iteratorIPS2_EES6_S2_vEET1_RT_T0_SA_S7_, symObjAddr: 0x11120, symBinAddr: 0x100011A80, symSize: 0x80 }
  - { offsetInCU: 0x16444, offset: 0x16444, size: 0x8, addend: 0x0, symName: __ZNSt3__14swapB8ue170006IP4moveEENS_9enable_ifIXaasr21is_move_constructibleIT_EE5valuesr18is_move_assignableIS4_EE5valueEvE4typeERS4_S7_, symObjAddr: 0x11250, symBinAddr: 0x100011BB0, symSize: 0xB0 }
  - { offsetInCU: 0x16495, offset: 0x16495, size: 0x8, addend: 0x0, symName: __ZNSt3__112__to_addressB8ue170006I4moveEEPT_S3_, symObjAddr: 0x11650, symBinAddr: 0x100011FB0, symSize: 0x20 }
  - { offsetInCU: 0x164CA, offset: 0x164CA, size: 0x8, addend: 0x0, symName: __ZNSt3__14moveB8ue170006INS_16reverse_iteratorIP4moveEES4_EET0_T_S6_S5_, symObjAddr: 0x11670, symBinAddr: 0x100011FD0, symSize: 0x90 }
  - { offsetInCU: 0x16524, offset: 0x16524, size: 0x8, addend: 0x0, symName: __ZNSt3__16__moveB8ue170006INS_17_ClassicAlgPolicyENS_16reverse_iteratorIP4moveEES5_S5_EENS_4pairIT0_T2_EES7_T1_S8_, symObjAddr: 0x11700, symBinAddr: 0x100012060, symSize: 0x90 }
  - { offsetInCU: 0x16590, offset: 0x16590, size: 0x8, addend: 0x0, symName: __ZNSt3__123__dispatch_copy_or_moveB8ue170006INS_17_ClassicAlgPolicyENS_11__move_loopIS1_EENS_14__move_trivialENS_16reverse_iteratorIP4moveEES8_S8_EENS_4pairIT2_T4_EESA_T3_SB_, symObjAddr: 0x11790, symBinAddr: 0x1000120F0, symSize: 0x90 }
  - { offsetInCU: 0x1660E, offset: 0x1660E, size: 0x8, addend: 0x0, symName: __ZNSt3__121__unwrap_and_dispatchB8ue170006INS_10__overloadINS_11__move_loopINS_17_ClassicAlgPolicyEEENS_14__move_trivialEEENS_16reverse_iteratorIP4moveEESA_SA_Li0EEENS_4pairIT0_T2_EESC_T1_SD_, symObjAddr: 0x11820, symBinAddr: 0x100012180, symSize: 0x210 }
  - { offsetInCU: 0x1669D, offset: 0x1669D, size: 0x8, addend: 0x0, symName: __ZNSt3__114__unwrap_rangeB8ue170006INS_16reverse_iteratorIP4moveEES4_EEDaT_T0_, symObjAddr: 0x11A30, symBinAddr: 0x100012390, symSize: 0x70 }
  - { offsetInCU: 0x168A4, offset: 0x168A4, size: 0x8, addend: 0x0, symName: __ZNSt3__113__unwrap_iterB8ue170006INS_16reverse_iteratorIP4moveEENS_18__unwrap_iter_implIS4_Lb0EEELi0EEEDTclsrT0_8__unwrapclsr3stdE7declvalIT_EEEES8_, symObjAddr: 0x11C00, symBinAddr: 0x100012560, symSize: 0x50 }
  - { offsetInCU: 0x168E8, offset: 0x168E8, size: 0x8, addend: 0x0, symName: __ZNSt3__19make_pairB8ue170006INS_16reverse_iteratorIP4moveEES4_EENS_4pairINS_18__unwrap_ref_decayIT_E4typeENS6_IT0_E4typeEEEOS7_OSA_, symObjAddr: 0x11C50, symBinAddr: 0x1000125B0, symSize: 0xE0 }
  - { offsetInCU: 0x16937, offset: 0x16937, size: 0x8, addend: 0x0, symName: __ZNSt3__114__rewrap_rangeB8ue170006INS_16reverse_iteratorIP4moveEES4_S4_EET0_S5_T1_, symObjAddr: 0x11D30, symBinAddr: 0x100012690, symSize: 0x60 }
  - { offsetInCU: 0x1698C, offset: 0x1698C, size: 0x8, addend: 0x0, symName: __ZNSt3__113__rewrap_iterB8ue170006INS_16reverse_iteratorIP4moveEES4_NS_18__unwrap_iter_implIS4_Lb0EEEEET_S7_T0_, symObjAddr: 0x11D90, symBinAddr: 0x1000126F0, symSize: 0x80 }
  - { offsetInCU: 0x16A31, offset: 0x16A31, size: 0x8, addend: 0x0, symName: __ZNSt3__1neB8ue170006IP4moveS2_EEbRKNS_16reverse_iteratorIT_EERKNS3_IT0_EE, symObjAddr: 0x11FB0, symBinAddr: 0x100012910, symSize: 0xA0 }
  - { offsetInCU: 0x16C30, offset: 0x16C30, size: 0x8, addend: 0x0, symName: __ZNSt3__110destroy_atB8ue170006I4moveLi0EEEvPT_, symObjAddr: 0x12880, symBinAddr: 0x1000131E0, symSize: 0x30 }
  - { offsetInCU: 0x16C67, offset: 0x16C67, size: 0x8, addend: 0x0, symName: __ZNSt3__112__destroy_atB8ue170006I4moveLi0EEEvPT_, symObjAddr: 0x128B0, symBinAddr: 0x100013210, symSize: 0x20 }
  - { offsetInCU: 0x16C9E, offset: 0x16C9E, size: 0x8, addend: 0x0, symName: __ZNSt3__111countr_zeroB8ue170006IyEEiT_, symObjAddr: 0x12D30, symBinAddr: 0x100013690, symSize: 0x40 }
  - { offsetInCU: 0x16CD3, offset: 0x16CD3, size: 0x8, addend: 0x0, symName: __ZNSt3__13maxB8ue170006ImEERKT_S3_S3_, symObjAddr: 0x13860, symBinAddr: 0x1000141C0, symSize: 0xD0 }
  - { offsetInCU: 0x16D17, offset: 0x16D17, size: 0x8, addend: 0x0, symName: __ZNSt3__127__throw_bad_optional_accessB8ue170006Ev, symObjAddr: 0x13A70, symBinAddr: 0x1000143D0, symSize: 0x80 }
  - { offsetInCU: 0x16D31, offset: 0x16D31, size: 0x8, addend: 0x0, symName: __ZNSt3__112__libcpp_ctzB8ue170006Em, symObjAddr: 0x13CA0, symBinAddr: 0x100014600, symSize: 0x50 }
  - { offsetInCU: 0x16D83, offset: 0x16D83, size: 0x8, addend: 0x0, symName: __ZNSt3__112construct_atB8ue170006I9board_posJS1_EPS1_EEPT_S4_DpOT0_, symObjAddr: 0x14410, symBinAddr: 0x100014D70, symSize: 0xA0 }
  - { offsetInCU: 0x16DF5, offset: 0x16DF5, size: 0x8, addend: 0x0, symName: __ZNSt3__1eqB8ue170006ERKNS_19__hash_map_iteratorINS_15__hash_iteratorIPNS_11__hash_nodeINS_17__hash_value_typeIy13zobrist_valueEEPvEEEEEESC_, symObjAddr: 0x14EB0, symBinAddr: 0x100015810, symSize: 0xA0 }
  - { offsetInCU: 0x16E32, offset: 0x16E32, size: 0x8, addend: 0x0, symName: __ZNSt3__116__constrain_hashB8ue170006Emm, symObjAddr: 0x16E60, symBinAddr: 0x1000177C0, symSize: 0xC0 }
  - { offsetInCU: 0x16E6C, offset: 0x16E6C, size: 0x8, addend: 0x0, symName: __ZNSt3__17launderB8ue170006IKNS_4pairIKy13zobrist_valueEEEEPT_S7_, symObjAddr: 0x17D50, symBinAddr: 0x1000186B0, symSize: 0x30 }
  - { offsetInCU: 0x16EA3, offset: 0x16EA3, size: 0x8, addend: 0x0, symName: __ZNSt3__19__launderB8ue170006IKNS_4pairIKy13zobrist_valueEEEEPT_S7_, symObjAddr: 0x17D80, symBinAddr: 0x1000186E0, symSize: 0x20 }
  - { offsetInCU: 0x16EDA, offset: 0x16EDA, size: 0x8, addend: 0x0, symName: __ZNSt3__1eqB8ue170006ERKNS_15__hash_iteratorIPNS_11__hash_nodeINS_17__hash_value_typeIy13zobrist_valueEEPvEEEESA_, symObjAddr: 0x17E60, symBinAddr: 0x1000187C0, symSize: 0x90 }
  - { offsetInCU: 0x16F7D, offset: 0x16F7D, size: 0x8, addend: 0x0, symName: __ZNSt3__13maxB8ue170006IfEERKT_S3_S3_, symObjAddr: 0x19B30, symBinAddr: 0x10001A490, symSize: 0xD0 }
  - { offsetInCU: 0x17292, offset: 0x17292, size: 0x8, addend: 0x0, symName: __ZNSt3__18popcountB8ue170006IyEEiT_, symObjAddr: 0x1B0F0, symBinAddr: 0x10001BA50, symSize: 0x30 }
  - { offsetInCU: 0x172C7, offset: 0x172C7, size: 0x8, addend: 0x0, symName: __ZNSt3__117__libcpp_popcountB8ue170006Em, symObjAddr: 0x1B120, symBinAddr: 0x10001BA80, symSize: 0x70 }
  - { offsetInCU: 0x172F3, offset: 0x172F3, size: 0x8, addend: 0x0, symName: __ZNSt3__13maxB8ue170006IfNS_6__lessIvvEEEERKT_S5_S5_T0_, symObjAddr: 0x1B190, symBinAddr: 0x10001BAF0, symSize: 0x100 }
  - { offsetInCU: 0x1734D, offset: 0x1734D, size: 0x8, addend: 0x0, symName: __ZNSt3__1neB8ue170006IP4moveEEbRKNS_11__wrap_iterIT_EES7_, symObjAddr: 0x1B3B0, symBinAddr: 0x10001BD10, symSize: 0xA0 }
  - { offsetInCU: 0x17390, offset: 0x17390, size: 0x8, addend: 0x0, symName: __ZNSt3__14sortB8ue170006INS_11__wrap_iterIP4moveEEZNK8Position11order_movesERNS_6vectorIS2_NS_9allocatorIS2_EEEEEUlRKS2_SC_E_EEvT_SE_T0_, symObjAddr: 0x1B5C0, symBinAddr: 0x10001BF20, symSize: 0x40 }
  - { offsetInCU: 0x173EA, offset: 0x173EA, size: 0x8, addend: 0x0, symName: __ZNSt3__1eqB8ue170006IP4moveEEbRKNS_11__wrap_iterIT_EES7_, symObjAddr: 0x1B720, symBinAddr: 0x10001C080, symSize: 0xA0 }
  - { offsetInCU: 0x1742D, offset: 0x1742D, size: 0x8, addend: 0x0, symName: __ZNSt3__111__sort_implB8ue170006INS_17_ClassicAlgPolicyENS_11__wrap_iterIP4moveEEZNK8Position11order_movesERNS_6vectorIS3_NS_9allocatorIS3_EEEEEUlRKS3_SD_E_EEvT0_SF_RT1_, symObjAddr: 0x1B810, symBinAddr: 0x10001C170, symSize: 0x100 }
  - { offsetInCU: 0x17490, offset: 0x17490, size: 0x8, addend: 0x0, symName: __ZNSt3__123__debug_randomize_rangeB8ue170006INS_17_ClassicAlgPolicyENS_11__wrap_iterIP4moveEES5_EEvT0_T1_, symObjAddr: 0x1B910, symBinAddr: 0x10001C270, symSize: 0x20 }
  - { offsetInCU: 0x174E1, offset: 0x174E1, size: 0x8, addend: 0x0, symName: __ZNSt3__115__sort_dispatchB8ue170006INS_17_ClassicAlgPolicyEP4moveZNK8Position11order_movesERNS_6vectorIS2_NS_9allocatorIS2_EEEEEUlRKS2_SB_E_EEvT0_SD_RT1_, symObjAddr: 0x1B930, symBinAddr: 0x10001C290, symSize: 0xD0 }
  - { offsetInCU: 0x1755F, offset: 0x1755F, size: 0x8, addend: 0x0, symName: __ZNSt3__113__unwrap_iterB8ue170006INS_11__wrap_iterIP4moveEENS_18__unwrap_iter_implIS4_Lb1EEELi0EEEDTclsrT0_8__unwrapclsr3stdE7declvalIT_EEEES8_, symObjAddr: 0x1BA00, symBinAddr: 0x10001C360, symSize: 0x30 }
  - { offsetInCU: 0x175A3, offset: 0x175A3, size: 0x8, addend: 0x0, symName: __ZNSt3__135__check_strict_weak_ordering_sortedB8ue170006IP4moveZNK8Position11order_movesERNS_6vectorIS1_NS_9allocatorIS1_EEEEEUlRKS1_SA_E_EEvT_SC_RT0_, symObjAddr: 0x1BA30, symBinAddr: 0x10001C390, symSize: 0x20 }
  - { offsetInCU: 0x175F9, offset: 0x175F9, size: 0x8, addend: 0x0, symName: __ZNSt3__17__log2iB8ue170006IlEET_S1_, symObjAddr: 0x1BA50, symBinAddr: 0x10001C3B0, symSize: 0x50 }
  - { offsetInCU: 0x17630, offset: 0x17630, size: 0x8, addend: 0x0, symName: __ZNSt3__124__sort3_maybe_branchlessB8ue170006INS_17_ClassicAlgPolicyERZNK8Position11order_movesERNS_6vectorI4moveNS_9allocatorIS4_EEEEEUlRKS4_SA_E_PS4_EENS_9enable_ifIXntsr21__use_branchless_sortIT0_T1_EE5valueEvE4typeESG_SG_SG_SF_, symObjAddr: 0x1D3A0, symBinAddr: 0x10001DD00, symSize: 0x80 }
  - { offsetInCU: 0x176A1, offset: 0x176A1, size: 0x8, addend: 0x0, symName: __ZNSt3__124__sort4_maybe_branchlessB8ue170006INS_17_ClassicAlgPolicyERZNK8Position11order_movesERNS_6vectorI4moveNS_9allocatorIS4_EEEEEUlRKS4_SA_E_PS4_EENS_9enable_ifIXntsr21__use_branchless_sortIT0_T1_EE5valueEvE4typeESG_SG_SG_SG_SF_, symObjAddr: 0x1D420, symBinAddr: 0x10001DD80, symSize: 0x90 }
  - { offsetInCU: 0x17720, offset: 0x17720, size: 0x8, addend: 0x0, symName: __ZNSt3__124__sort5_maybe_branchlessB8ue170006INS_17_ClassicAlgPolicyERZNK8Position11order_movesERNS_6vectorI4moveNS_9allocatorIS4_EEEEEUlRKS4_SA_E_PS4_EENS_9enable_ifIXntsr21__use_branchless_sortIT0_T1_EE5valueEvE4typeESG_SG_SG_SG_SG_SF_, symObjAddr: 0x1D4B0, symBinAddr: 0x10001DE10, symSize: 0xA0 }
  - { offsetInCU: 0x177AD, offset: 0x177AD, size: 0x8, addend: 0x0, symName: __ZNSt3__116__insertion_sortB8ue170006INS_17_ClassicAlgPolicyERZNK8Position11order_movesERNS_6vectorI4moveNS_9allocatorIS4_EEEEEUlRKS4_SA_E_PS4_EEvT1_SE_T0_, symObjAddr: 0x1D550, symBinAddr: 0x10001DEB0, symSize: 0x3B0 }
  - { offsetInCU: 0x17871, offset: 0x17871, size: 0x8, addend: 0x0, symName: __ZNSt3__114__partial_sortB8ue170006INS_17_ClassicAlgPolicyERZNK8Position11order_movesERNS_6vectorI4moveNS_9allocatorIS4_EEEEEUlRKS4_SA_E_PS4_SD_EET1_SE_SE_T2_RT0_, symObjAddr: 0x1DCF0, symBinAddr: 0x10001E650, symSize: 0xD0 }
  - { offsetInCU: 0x178F9, offset: 0x178F9, size: 0x8, addend: 0x0, symName: __ZNSt3__17__sort3B8ue170006INS_17_ClassicAlgPolicyERZNK8Position11order_movesERNS_6vectorI4moveNS_9allocatorIS4_EEEEEUlRKS4_SA_E_PS4_EEjT1_SE_SE_T0_, symObjAddr: 0x1DDC0, symBinAddr: 0x10001E720, symSize: 0x430 }
  - { offsetInCU: 0x17978, offset: 0x17978, size: 0x8, addend: 0x0, symName: __ZNSt3__19iter_swapB8ue170006IP4moveS2_EEvT_T0_, symObjAddr: 0x20410, symBinAddr: 0x100020D70, symSize: 0xA0 }
  - { offsetInCU: 0x179C0, offset: 0x179C0, size: 0x8, addend: 0x0, symName: __ZNSt3__14swapB8ue170006I4moveEENS_9enable_ifIXaasr21is_move_constructibleIT_EE5valuesr18is_move_assignableIS3_EE5valueEvE4typeERS3_S6_, symObjAddr: 0x204B0, symBinAddr: 0x100020E10, symSize: 0x70 }
  - { offsetInCU: 0x17A11, offset: 0x17A11, size: 0x8, addend: 0x0, symName: __ZNSt3__17__sort4B8ue170006INS_17_ClassicAlgPolicyERZNK8Position11order_movesERNS_6vectorI4moveNS_9allocatorIS4_EEEEEUlRKS4_SA_E_PS4_EEvT1_SE_SE_SE_T0_, symObjAddr: 0x20520, symBinAddr: 0x100020E80, symSize: 0x2C0 }
  - { offsetInCU: 0x17A8C, offset: 0x17A8C, size: 0x8, addend: 0x0, symName: __ZNSt3__17__sort5B8ue170006INS_17_ClassicAlgPolicyERZNK8Position11order_movesERNS_6vectorI4moveNS_9allocatorIS4_EEEEEUlRKS4_SA_E_PS4_EEvT1_SE_SE_SE_SE_T0_, symObjAddr: 0x207E0, symBinAddr: 0x100021140, symSize: 0x3C0 }
  - { offsetInCU: 0x17B15, offset: 0x17B15, size: 0x8, addend: 0x0, symName: __ZNSt3__123__debug_randomize_rangeB8ue170006INS_17_ClassicAlgPolicyEP4moveS3_EEvT0_T1_, symObjAddr: 0x20C60, symBinAddr: 0x1000215C0, symSize: 0x20 }
  - { offsetInCU: 0x17B66, offset: 0x17B66, size: 0x8, addend: 0x0, symName: __ZNSt3__119__partial_sort_implB8ue170006INS_17_ClassicAlgPolicyERZNK8Position11order_movesERNS_6vectorI4moveNS_9allocatorIS4_EEEEEUlRKS4_SA_E_PS4_SD_EET1_SE_SE_T2_OT0_, symObjAddr: 0x20C80, symBinAddr: 0x1000215E0, symSize: 0x290 }
  - { offsetInCU: 0x17BFC, offset: 0x17BFC, size: 0x8, addend: 0x0, symName: __ZNSt3__111__make_heapB8ue170006INS_17_ClassicAlgPolicyERZNK8Position11order_movesERNS_6vectorI4moveNS_9allocatorIS4_EEEEEUlRKS4_SA_E_PS4_EEvT1_SE_OT0_, symObjAddr: 0x20F10, symBinAddr: 0x100021870, symSize: 0x200 }
  - { offsetInCU: 0x17C9E, offset: 0x17C9E, size: 0x8, addend: 0x0, symName: __ZNSt3__111__sort_heapB8ue170006INS_17_ClassicAlgPolicyERZNK8Position11order_movesERNS_6vectorI4moveNS_9allocatorIS4_EEEEEUlRKS4_SA_E_PS4_EEvT1_SE_OT0_, symObjAddr: 0x21A50, symBinAddr: 0x1000223B0, symSize: 0x1B0 }
  - { offsetInCU: 0x17D40, offset: 0x17D40, size: 0x8, addend: 0x0, symName: __ZNSt3__110__pop_heapB8ue170006INS_17_ClassicAlgPolicyEZNK8Position11order_movesERNS_6vectorI4moveNS_9allocatorIS4_EEEEEUlRKS4_SA_E_PS4_EEvT1_SD_RT0_NS_15iterator_traitsISD_E15difference_typeE, symObjAddr: 0x21C00, symBinAddr: 0x100022560, symSize: 0x260 }
  - { offsetInCU: 0x17DF1, offset: 0x17DF1, size: 0x8, addend: 0x0, symName: __ZNSt3__19__sift_upB8ue170006INS_17_ClassicAlgPolicyERZNK8Position11order_movesERNS_6vectorI4moveNS_9allocatorIS4_EEEEEUlRKS4_SA_E_PS4_EEvT1_SE_OT0_NS_15iterator_traitsISE_E15difference_typeE, symObjAddr: 0x222A0, symBinAddr: 0x100022C00, symSize: 0x450 }
  - { offsetInCU: 0x17EA1, offset: 0x17EA1, size: 0x8, addend: 0x0, symName: __ZNSt3__122__populate_left_bitsetB8ue170006IRZNK8Position11order_movesERNS_6vectorI4moveNS_9allocatorIS3_EEEEEUlRKS3_S9_E_PS3_S3_EEvT0_T_RT1_Ry, symObjAddr: 0x226F0, symBinAddr: 0x100023050, symSize: 0x200 }
  - { offsetInCU: 0x17F5C, offset: 0x17F5C, size: 0x8, addend: 0x0, symName: __ZNSt3__123__populate_right_bitsetB8ue170006IRZNK8Position11order_movesERNS_6vectorI4moveNS_9allocatorIS3_EEEEEUlRKS3_S9_E_PS3_S3_EEvT0_T_RT1_Ry, symObjAddr: 0x228F0, symBinAddr: 0x100023250, symSize: 0x200 }
  - { offsetInCU: 0x18017, offset: 0x18017, size: 0x8, addend: 0x0, symName: __ZNSt3__117__swap_bitmap_posB8ue170006INS_17_ClassicAlgPolicyEP4moveEEvT0_S4_RyS5_, symObjAddr: 0x22AF0, symBinAddr: 0x100023450, symSize: 0x1B0 }
  - { offsetInCU: 0x180B8, offset: 0x180B8, size: 0x8, addend: 0x0, symName: __ZNSt3__133__bitset_partition_partial_blocksB8ue170006INS_17_ClassicAlgPolicyERZNK8Position11order_movesERNS_6vectorI4moveNS_9allocatorIS4_EEEEEUlRKS4_SA_E_PS4_S4_EEvRT1_SF_T0_RT2_RySJ_, symObjAddr: 0x22CA0, symBinAddr: 0x100023600, symSize: 0x8B0 }
  - { offsetInCU: 0x1823F, offset: 0x1823F, size: 0x8, addend: 0x0, symName: __ZNSt3__19make_pairB8ue170006IRP4moveRbEENS_4pairINS_18__unwrap_ref_decayIT_E4typeENS6_IT0_E4typeEEEOS7_OSA_, symObjAddr: 0x23A10, symBinAddr: 0x100024370, symSize: 0x90 }
  - { offsetInCU: 0x1828E, offset: 0x1828E, size: 0x8, addend: 0x0, symName: __ZNSt3__112__libcpp_ctzB8ue170006Ey, symObjAddr: 0x23AA0, symBinAddr: 0x100024400, symSize: 0x50 }
  - { offsetInCU: 0x182BA, offset: 0x182BA, size: 0x8, addend: 0x0, symName: __ZNSt3__113__libcpp_blsrB8ue170006Ey, symObjAddr: 0x23AF0, symBinAddr: 0x100024450, symSize: 0x30 }
  - { offsetInCU: 0x182E6, offset: 0x182E6, size: 0x8, addend: 0x0, symName: __ZNSt3__112__libcpp_clzB8ue170006Ey, symObjAddr: 0x23BD0, symBinAddr: 0x100024530, symSize: 0x50 }
  - { offsetInCU: 0x18486, offset: 0x18486, size: 0x8, addend: 0x0, symName: __ZNSt3__112__to_addressB8ue170006INS_11__wrap_iterIP4moveEEvEEu7__decayIDTclsr19__to_address_helperIT_EE6__callclsr3stdE7declvalIRKS5_EEEEES7_, symObjAddr: 0x23DA0, symBinAddr: 0x100024700, symSize: 0x60 }
  - { offsetInCU: 0x18572, offset: 0x18572, size: 0x8, addend: 0x0, symName: __ZNSt3__116forward_as_tupleB8ue170006IJRKyEEENS_5tupleIJDpOT_EEES6_, symObjAddr: 0x251C0, symBinAddr: 0x100025B20, symSize: 0x60 }
  - { offsetInCU: 0x185AB, offset: 0x185AB, size: 0x8, addend: 0x0, symName: __ZNSt3__116forward_as_tupleB8ue170006IJEEENS_5tupleIJDpOT_EEES4_, symObjAddr: 0x25220, symBinAddr: 0x100025B80, symSize: 0x10 }
  - { offsetInCU: 0x185CF, offset: 0x185CF, size: 0x8, addend: 0x0, symName: __ZNSt3__116__is_hash_power2B8ue170006Em, symObjAddr: 0x259C0, symBinAddr: 0x100026320, symSize: 0x50 }
  - { offsetInCU: 0x1863F, offset: 0x1863F, size: 0x8, addend: 0x0, symName: __ZNSt3__112construct_atB8ue170006INS_4pairIKy13zobrist_valueEEJRKNS_21piecewise_construct_tENS_5tupleIJRS2_EEENS8_IJEEEEPS4_EEPT_SE_DpOT0_, symObjAddr: 0x265C0, symBinAddr: 0x100026F20, symSize: 0xC0 }
  - { offsetInCU: 0x186E3, offset: 0x186E3, size: 0x8, addend: 0x0, symName: __ZNSt3__13getB8ue170006ILm0EJRKyEEERNS_13tuple_elementIXT_ENS_5tupleIJDpT0_EEEE4typeERS7_, symObjAddr: 0x26830, symBinAddr: 0x100027190, symSize: 0xB0 }
  - { offsetInCU: 0x18726, offset: 0x18726, size: 0x8, addend: 0x0, symName: __ZNSt3__116__next_hash_pow2B8ue170006Em, symObjAddr: 0x27C70, symBinAddr: 0x1000285D0, symSize: 0xC0 }
  - { offsetInCU: 0x187B9, offset: 0x187B9, size: 0x8, addend: 0x0, symName: __ZNSt3__112construct_atB8ue170006I4moveJS1_EPS1_EEPT_S4_DpOT0_, symObjAddr: 0x294D0, symBinAddr: 0x100029E30, symSize: 0xB0 }
  - { offsetInCU: 0x1882B, offset: 0x1882B, size: 0x8, addend: 0x0, symName: __ZNSt3__13maxB8ue170006ImNS_6__lessIvvEEEERKT_S5_S5_T0_, symObjAddr: 0x29760, symBinAddr: 0x10002A0C0, symSize: 0x100 }
  - { offsetInCU: 0x18885, offset: 0x18885, size: 0x8, addend: 0x0, symName: __ZNSt3__18distanceB8ue170006IP4moveEENS_15iterator_traitsIT_E15difference_typeES4_S4_, symObjAddr: 0x29B90, symBinAddr: 0x10002A4F0, symSize: 0x30 }
  - { offsetInCU: 0x188C8, offset: 0x188C8, size: 0x8, addend: 0x0, symName: __ZNSt3__14nextB8ue170006IP4moveEENS_9enable_ifIXsr29__has_input_iterator_categoryIT_EE5valueES4_E4typeES4_NS_15iterator_traitsIS4_E15difference_typeE, symObjAddr: 0x29BC0, symBinAddr: 0x10002A520, symSize: 0x30 }
  - { offsetInCU: 0x1890B, offset: 0x1890B, size: 0x8, addend: 0x0, symName: __ZNSt3__14copyB8ue170006IP4moveS2_EET0_T_S4_S3_, symObjAddr: 0x29BF0, symBinAddr: 0x10002A550, symSize: 0x80 }
  - { offsetInCU: 0x18965, offset: 0x18965, size: 0x8, addend: 0x0, symName: __ZNSt3__16__copyB8ue170006INS_17_ClassicAlgPolicyEP4moveS3_S3_EENS_4pairIT0_T2_EES5_T1_S6_, symObjAddr: 0x29DF0, symBinAddr: 0x10002A750, symSize: 0x50 }
  - { offsetInCU: 0x189D1, offset: 0x189D1, size: 0x8, addend: 0x0, symName: __ZNSt3__121__convert_to_integralB8ue170006El, symObjAddr: 0x2A210, symBinAddr: 0x10002AB70, symSize: 0x20 }
  - { offsetInCU: 0x189FD, offset: 0x189FD, size: 0x8, addend: 0x0, symName: __ZNSt3__19__advanceB8ue170006IP4moveEEvRT_NS_15iterator_traitsIS3_E15difference_typeENS_26random_access_iterator_tagE, symObjAddr: 0x2A230, symBinAddr: 0x10002AB90, symSize: 0xA0 }
  - { offsetInCU: 0x18A47, offset: 0x18A47, size: 0x8, addend: 0x0, symName: __ZNSt3__130__uninitialized_allocator_copyB8ue170006INS_9allocatorI4moveEEPS2_S4_S4_EET2_RT_T0_T1_S5_, symObjAddr: 0x2A2D0, symBinAddr: 0x10002AC30, symSize: 0xD0 }
  - { offsetInCU: 0x18AE4, offset: 0x18AE4, size: 0x8, addend: 0x0, symName: __ZNSt3__114__unwrap_rangeB8ue170006IP4moveS2_EEDaT_T0_, symObjAddr: 0x2A3A0, symBinAddr: 0x10002AD00, symSize: 0x40 }
  - { offsetInCU: 0x18B30, offset: 0x18B30, size: 0x8, addend: 0x0, symName: __ZNSt3__135__uninitialized_allocator_copy_implB8ue170006INS_9allocatorI4moveEES2_S2_S2_LPv0EEEPT2_RT_PT0_SA_S6_, symObjAddr: 0x2A3E0, symBinAddr: 0x10002AD40, symSize: 0x40 }
  - { offsetInCU: 0x18BB2, offset: 0x18BB2, size: 0x8, addend: 0x0, symName: __ZNSt3__113__unwrap_iterB8ue170006IP4moveNS_18__unwrap_iter_implIS2_Lb1EEELi0EEEDTclsrT0_8__unwrapclsr3stdE7declvalIT_EEEES6_, symObjAddr: 0x2A420, symBinAddr: 0x10002AD80, symSize: 0x30 }
  - { offsetInCU: 0x18BF6, offset: 0x18BF6, size: 0x8, addend: 0x0, symName: __ZNSt3__113__rewrap_iterB8ue170006IP4moveS2_NS_18__unwrap_iter_implIS2_Lb1EEEEET_S5_T0_, symObjAddr: 0x2A450, symBinAddr: 0x10002ADB0, symSize: 0x40 }
  - { offsetInCU: 0x18E3E, offset: 0x18E3E, size: 0x8, addend: 0x0, symName: __ZNSt3__123__dispatch_copy_or_moveB8ue170006INS_17_ClassicAlgPolicyENS_11__copy_loopIS1_EENS_14__copy_trivialEP4moveS6_S6_EENS_4pairIT2_T4_EES8_T3_S9_, symObjAddr: 0x2A720, symBinAddr: 0x10002B080, symSize: 0x50 }
  - { offsetInCU: 0x18EBC, offset: 0x18EBC, size: 0x8, addend: 0x0, symName: __ZNSt3__121__unwrap_and_dispatchB8ue170006INS_10__overloadINS_11__copy_loopINS_17_ClassicAlgPolicyEEENS_14__copy_trivialEEEP4moveS8_S8_Li0EEENS_4pairIT0_T2_EESA_T1_SB_, symObjAddr: 0x2A770, symBinAddr: 0x10002B0D0, symSize: 0x140 }
  - { offsetInCU: 0x18FCD, offset: 0x18FCD, size: 0x8, addend: 0x0, symName: __ZNSt3__19make_pairB8ue170006IP4moveS2_EENS_4pairINS_18__unwrap_ref_decayIT_E4typeENS4_IT0_E4typeEEEOS5_OS8_, symObjAddr: 0x2A920, symBinAddr: 0x10002B280, symSize: 0xA0 }
  - { offsetInCU: 0x1901C, offset: 0x1901C, size: 0x8, addend: 0x0, symName: __ZNSt3__114__rewrap_rangeB8ue170006IP4moveS2_S2_EET0_S3_T1_, symObjAddr: 0x2A9C0, symBinAddr: 0x10002B320, symSize: 0x30 }
  - { offsetInCU: 0x19071, offset: 0x19071, size: 0x8, addend: 0x0, symName: __ZNSt3__119__copy_trivial_implB8ue170006I4moveS1_EENS_4pairIPT_PT0_EES4_S4_S6_, symObjAddr: 0x2A9F0, symBinAddr: 0x10002B350, symSize: 0xE0 }
  - { offsetInCU: 0x190D9, offset: 0x190D9, size: 0x8, addend: 0x0, symName: __ZNSt3__119__constexpr_memmoveB8ue170006I4moveS1_Li0EEEPT_S3_PT0_NS_15__element_countE, symObjAddr: 0x2AAD0, symBinAddr: 0x10002B430, symSize: 0x60 }
  - { offsetInCU: 0x19147, offset: 0x19147, size: 0x8, addend: 0x0, symName: __ZNSt3__19make_pairB8ue170006IRP4moveS2_EENS_4pairINS_18__unwrap_ref_decayIT_E4typeENS5_IT0_E4typeEEEOS6_OS9_, symObjAddr: 0x2AB30, symBinAddr: 0x10002B490, symSize: 0xA0 }
  - { offsetInCU: 0x19196, offset: 0x19196, size: 0x8, addend: 0x0, symName: __ZNSt3__110__distanceB8ue170006IP4moveEENS_15iterator_traitsIT_E15difference_typeES4_S4_NS_26random_access_iterator_tagE, symObjAddr: 0x2AD40, symBinAddr: 0x10002B6A0, symSize: 0x30 }
  - { offsetInCU: 0x19788, offset: 0x19788, size: 0x8, addend: 0x0, symName: __ZNSt3__112construct_atB8ue170006IaJRiEPaEEPT_S4_DpOT0_, symObjAddr: 0x2B8B0, symBinAddr: 0x10002C210, symSize: 0xB0 }
  - { offsetInCU: 0x197FA, offset: 0x197FA, size: 0x8, addend: 0x0, symName: __ZNSt3__112construct_atB8ue170006I5pieceJRS1_EPS1_EEPT_S5_DpOT0_, symObjAddr: 0x2BA40, symBinAddr: 0x10002C3A0, symSize: 0x80 }
  - { offsetInCU: 0x1986C, offset: 0x1986C, size: 0x8, addend: 0x0, symName: __ZNSt3__112__to_addressB8ue170006I14position_timesEEPT_S3_, symObjAddr: 0x2C330, symBinAddr: 0x10002CC90, symSize: 0x20 }
  - { offsetInCU: 0x198A1, offset: 0x198A1, size: 0x8, addend: 0x0, symName: __ZNSt3__110destroy_atB8ue170006I14position_timesLi0EEEvPT_, symObjAddr: 0x2C350, symBinAddr: 0x10002CCB0, symSize: 0x30 }
  - { offsetInCU: 0x198D8, offset: 0x198D8, size: 0x8, addend: 0x0, symName: __ZNSt3__112__destroy_atB8ue170006I14position_timesLi0EEEvPT_, symObjAddr: 0x2C380, symBinAddr: 0x10002CCE0, symSize: 0x20 }
  - { offsetInCU: 0x1990F, offset: 0x1990F, size: 0x8, addend: 0x0, symName: __ZNSt3__122__libcpp_thread_isnullB8ue170006EPKP17_opaque_pthread_t, symObjAddr: 0x2C850, symBinAddr: 0x10002D1B0, symSize: 0x30 }
  - { offsetInCU: 0x1993D, offset: 0x1993D, size: 0x8, addend: 0x0, symName: __ZNSt3__122__libcpp_thread_get_idB8ue170006EPKP17_opaque_pthread_t, symObjAddr: 0x2C880, symBinAddr: 0x10002D1E0, symSize: 0x60 }
  - { offsetInCU: 0x1996B, offset: 0x1996B, size: 0x8, addend: 0x0, symName: __ZNSt3__112construct_atB8ue170006I9board_posJRS1_EPS1_EEPT_S5_DpOT0_, symObjAddr: 0x2D390, symBinAddr: 0x10002DCF0, symSize: 0xA0 }
  - { offsetInCU: 0x199DE, offset: 0x199DE, size: 0x8, addend: 0x0, symName: __ZNSt3__111unreachableB8ue170006Ev, symObjAddr: 0x31030, symBinAddr: 0x100031990, symSize: 0x30 }
  - { offsetInCU: 0x199F7, offset: 0x199F7, size: 0x8, addend: 0x0, symName: __ZNSt3__1eqB8ue170006I5pieceS1_EENS_9enable_ifIX16is_convertible_vIDTeqclsr3stdE7declvalIRKT_EEclsr3stdE7declvalIRKT0_EEEbEEbE4typeERKNS_8optionalIS3_EES8_, symObjAddr: 0x31230, symBinAddr: 0x100031B90, symSize: 0xA0 }
  - { offsetInCU: 0x19A46, offset: 0x19A46, size: 0x8, addend: 0x0, symName: __ZNSt3__1eqB8ue170006IiaEENS_9enable_ifIX16is_convertible_vIDTeqclsr3stdE7declvalIRKT_EEclsr3stdE7declvalIRKT0_EEEbEEbE4typeES4_RKNS_8optionalIS5_EE, symObjAddr: 0x31450, symBinAddr: 0x100031DB0, symSize: 0xB0 }
  - { offsetInCU: 0x19A96, offset: 0x19A96, size: 0x8, addend: 0x0, symName: __ZNSt3__120__libcpp_unreachableB8ue170006Ev, symObjAddr: 0x315B0, symBinAddr: 0x100031F10, symSize: 0x30 }
  - { offsetInCU: 0x19AD5, offset: 0x19AD5, size: 0x8, addend: 0x0, symName: __ZNSt3__112construct_atB8ue170006I14position_timesJS1_EPS1_EEPT_S4_DpOT0_, symObjAddr: 0x31EC0, symBinAddr: 0x100032820, symSize: 0xB0 }
  - { offsetInCU: 0x19B47, offset: 0x19B47, size: 0x8, addend: 0x0, symName: __ZNSt3__119__allocate_at_leastB8ue170006INS_9allocatorI14position_timesEEEEDaRT_m, symObjAddr: 0x32C10, symBinAddr: 0x100033570, symSize: 0x60 }
  - { offsetInCU: 0x19B8A, offset: 0x19B8A, size: 0x8, addend: 0x0, symName: __ZNSt3__117allocate_at_leastB8ue170006INS_9allocatorI14position_timesEEEENS_17allocation_resultINS_16allocator_traitsIT_E7pointerEEERS6_m, symObjAddr: 0x32F90, symBinAddr: 0x1000338F0, symSize: 0x40 }
  - { offsetInCU: 0x19BCD, offset: 0x19BCD, size: 0x8, addend: 0x0, symName: __ZNSt3__142__uninitialized_allocator_move_if_noexceptB8ue170006INS_9allocatorI14position_timesEENS_16reverse_iteratorIPS2_EES6_S2_vEET1_RT_T0_SA_S7_, symObjAddr: 0x334D0, symBinAddr: 0x100033E30, symSize: 0x80 }
  - { offsetInCU: 0x19C4A, offset: 0x19C4A, size: 0x8, addend: 0x0, symName: __ZNSt3__14swapB8ue170006IP14position_timesEENS_9enable_ifIXaasr21is_move_constructibleIT_EE5valuesr18is_move_assignableIS4_EE5valueEvE4typeERS4_S7_, symObjAddr: 0x33600, symBinAddr: 0x100033F60, symSize: 0xB0 }
  - { offsetInCU: 0x19C9B, offset: 0x19C9B, size: 0x8, addend: 0x0, symName: __ZNSt3__14moveB8ue170006INS_16reverse_iteratorIP14position_timesEES4_EET0_T_S6_S5_, symObjAddr: 0x33870, symBinAddr: 0x1000341D0, symSize: 0x90 }
  - { offsetInCU: 0x19CF5, offset: 0x19CF5, size: 0x8, addend: 0x0, symName: __ZNSt3__16__moveB8ue170006INS_17_ClassicAlgPolicyENS_16reverse_iteratorIP14position_timesEES5_S5_EENS_4pairIT0_T2_EES7_T1_S8_, symObjAddr: 0x33900, symBinAddr: 0x100034260, symSize: 0x90 }
  - { offsetInCU: 0x19D61, offset: 0x19D61, size: 0x8, addend: 0x0, symName: __ZNSt3__123__dispatch_copy_or_moveB8ue170006INS_17_ClassicAlgPolicyENS_11__move_loopIS1_EENS_14__move_trivialENS_16reverse_iteratorIP14position_timesEES8_S8_EENS_4pairIT2_T4_EESA_T3_SB_, symObjAddr: 0x33990, symBinAddr: 0x1000342F0, symSize: 0x90 }
  - { offsetInCU: 0x19DDF, offset: 0x19DDF, size: 0x8, addend: 0x0, symName: __ZNSt3__121__unwrap_and_dispatchB8ue170006INS_10__overloadINS_11__move_loopINS_17_ClassicAlgPolicyEEENS_14__move_trivialEEENS_16reverse_iteratorIP14position_timesEESA_SA_Li0EEENS_4pairIT0_T2_EESC_T1_SD_, symObjAddr: 0x33A20, symBinAddr: 0x100034380, symSize: 0x210 }
  - { offsetInCU: 0x19E6E, offset: 0x19E6E, size: 0x8, addend: 0x0, symName: __ZNSt3__114__unwrap_rangeB8ue170006INS_16reverse_iteratorIP14position_timesEES4_EEDaT_T0_, symObjAddr: 0x33C30, symBinAddr: 0x100034590, symSize: 0x70 }
  - { offsetInCU: 0x19FDB, offset: 0x19FDB, size: 0x8, addend: 0x0, symName: __ZNSt3__113__unwrap_iterB8ue170006INS_16reverse_iteratorIP14position_timesEENS_18__unwrap_iter_implIS4_Lb0EEELi0EEEDTclsrT0_8__unwrapclsr3stdE7declvalIT_EEEES8_, symObjAddr: 0x33E00, symBinAddr: 0x100034760, symSize: 0x50 }
  - { offsetInCU: 0x1A01F, offset: 0x1A01F, size: 0x8, addend: 0x0, symName: __ZNSt3__19make_pairB8ue170006INS_16reverse_iteratorIP14position_timesEES4_EENS_4pairINS_18__unwrap_ref_decayIT_E4typeENS6_IT0_E4typeEEEOS7_OSA_, symObjAddr: 0x33E50, symBinAddr: 0x1000347B0, symSize: 0xE0 }
  - { offsetInCU: 0x1A06E, offset: 0x1A06E, size: 0x8, addend: 0x0, symName: __ZNSt3__114__rewrap_rangeB8ue170006INS_16reverse_iteratorIP14position_timesEES4_S4_EET0_S5_T1_, symObjAddr: 0x33F30, symBinAddr: 0x100034890, symSize: 0x60 }
  - { offsetInCU: 0x1A0C3, offset: 0x1A0C3, size: 0x8, addend: 0x0, symName: __ZNSt3__113__rewrap_iterB8ue170006INS_16reverse_iteratorIP14position_timesEES4_NS_18__unwrap_iter_implIS4_Lb0EEEEET_S7_T0_, symObjAddr: 0x33F90, symBinAddr: 0x1000348F0, symSize: 0x80 }
  - { offsetInCU: 0x1A168, offset: 0x1A168, size: 0x8, addend: 0x0, symName: __ZNSt3__1neB8ue170006IP14position_timesS2_EEbRKNS_16reverse_iteratorIT_EERKNS3_IT0_EE, symObjAddr: 0x341B0, symBinAddr: 0x100034B10, symSize: 0xA0 }
  - { offsetInCU: 0x1A220, offset: 0x1A220, size: 0x8, addend: 0x0, symName: __ZNSt3__18distanceB8ue170006IPK14position_timesEENS_15iterator_traitsIT_E15difference_typeES5_S5_, symObjAddr: 0x35020, symBinAddr: 0x100035980, symSize: 0x30 }
  - { offsetInCU: 0x1A263, offset: 0x1A263, size: 0x8, addend: 0x0, symName: __ZNSt3__14nextB8ue170006IPK14position_timesEENS_9enable_ifIXsr29__has_input_iterator_categoryIT_EE5valueES5_E4typeES5_NS_15iterator_traitsIS5_E15difference_typeE, symObjAddr: 0x35050, symBinAddr: 0x1000359B0, symSize: 0x30 }
  - { offsetInCU: 0x1A2A6, offset: 0x1A2A6, size: 0x8, addend: 0x0, symName: __ZNSt3__14copyB8ue170006IPK14position_timesPS1_EET0_T_S6_S5_, symObjAddr: 0x35080, symBinAddr: 0x1000359E0, symSize: 0x80 }
  - { offsetInCU: 0x1A300, offset: 0x1A300, size: 0x8, addend: 0x0, symName: __ZNSt3__16__copyB8ue170006INS_17_ClassicAlgPolicyEPK14position_timesS4_PS2_EENS_4pairIT0_T2_EES7_T1_S8_, symObjAddr: 0x35280, symBinAddr: 0x100035BE0, symSize: 0x50 }
  - { offsetInCU: 0x1A36C, offset: 0x1A36C, size: 0x8, addend: 0x0, symName: __ZNSt3__19__advanceB8ue170006IPK14position_timesEEvRT_NS_15iterator_traitsIS4_E15difference_typeENS_26random_access_iterator_tagE, symObjAddr: 0x35620, symBinAddr: 0x100035F80, symSize: 0xA0 }
  - { offsetInCU: 0x1A3B6, offset: 0x1A3B6, size: 0x8, addend: 0x0, symName: __ZNSt3__130__uninitialized_allocator_copyB8ue170006INS_9allocatorI14position_timesEEPKS2_S5_PS2_EET2_RT_T0_T1_S7_, symObjAddr: 0x356C0, symBinAddr: 0x100036020, symSize: 0xD0 }
  - { offsetInCU: 0x1A453, offset: 0x1A453, size: 0x8, addend: 0x0, symName: __ZNSt3__114__unwrap_rangeB8ue170006IPK14position_timesS3_EEDaT_T0_, symObjAddr: 0x35790, symBinAddr: 0x1000360F0, symSize: 0x40 }
  - { offsetInCU: 0x1A49F, offset: 0x1A49F, size: 0x8, addend: 0x0, symName: __ZNSt3__135__uninitialized_allocator_copy_implB8ue170006INS_9allocatorI14position_timesEEKS2_S2_S2_LPv0EEEPT2_RT_PT0_SB_S7_, symObjAddr: 0x357D0, symBinAddr: 0x100036130, symSize: 0x40 }
  - { offsetInCU: 0x1A521, offset: 0x1A521, size: 0x8, addend: 0x0, symName: __ZNSt3__113__unwrap_iterB8ue170006IP14position_timesNS_18__unwrap_iter_implIS2_Lb1EEELi0EEEDTclsrT0_8__unwrapclsr3stdE7declvalIT_EEEES6_, symObjAddr: 0x35810, symBinAddr: 0x100036170, symSize: 0x30 }
  - { offsetInCU: 0x1A565, offset: 0x1A565, size: 0x8, addend: 0x0, symName: __ZNSt3__113__rewrap_iterB8ue170006IP14position_timesS2_NS_18__unwrap_iter_implIS2_Lb1EEEEET_S5_T0_, symObjAddr: 0x35840, symBinAddr: 0x1000361A0, symSize: 0x40 }
  - { offsetInCU: 0x1A723, offset: 0x1A723, size: 0x8, addend: 0x0, symName: __ZNSt3__113__unwrap_iterB8ue170006IPK14position_timesNS_18__unwrap_iter_implIS3_Lb1EEELi0EEEDTclsrT0_8__unwrapclsr3stdE7declvalIT_EEEES7_, symObjAddr: 0x358E0, symBinAddr: 0x100036240, symSize: 0x30 }
  - { offsetInCU: 0x1A7BA, offset: 0x1A7BA, size: 0x8, addend: 0x0, symName: __ZNSt3__112__to_addressB8ue170006IK14position_timesEEPT_S4_, symObjAddr: 0x359A0, symBinAddr: 0x100036300, symSize: 0x20 }
  - { offsetInCU: 0x1A842, offset: 0x1A842, size: 0x8, addend: 0x0, symName: __ZNSt3__123__dispatch_copy_or_moveB8ue170006INS_17_ClassicAlgPolicyENS_11__copy_loopIS1_EENS_14__copy_trivialEPK14position_timesS7_PS5_EENS_4pairIT2_T4_EESA_T3_SB_, symObjAddr: 0x35B90, symBinAddr: 0x1000364F0, symSize: 0x50 }
  - { offsetInCU: 0x1A8C0, offset: 0x1A8C0, size: 0x8, addend: 0x0, symName: __ZNSt3__121__unwrap_and_dispatchB8ue170006INS_10__overloadINS_11__copy_loopINS_17_ClassicAlgPolicyEEENS_14__copy_trivialEEEPK14position_timesS9_PS7_Li0EEENS_4pairIT0_T2_EESC_T1_SD_, symObjAddr: 0x35BE0, symBinAddr: 0x100036540, symSize: 0x140 }
  - { offsetInCU: 0x1AA9F, offset: 0x1AA9F, size: 0x8, addend: 0x0, symName: __ZNSt3__19make_pairB8ue170006IPK14position_timesPS1_EENS_4pairINS_18__unwrap_ref_decayIT_E4typeENS6_IT0_E4typeEEEOS7_OSA_, symObjAddr: 0x35D90, symBinAddr: 0x1000366F0, symSize: 0xA0 }
  - { offsetInCU: 0x1AAEE, offset: 0x1AAEE, size: 0x8, addend: 0x0, symName: __ZNSt3__114__rewrap_rangeB8ue170006IPK14position_timesS3_S3_EET0_S4_T1_, symObjAddr: 0x35E30, symBinAddr: 0x100036790, symSize: 0x30 }
  - { offsetInCU: 0x1AB43, offset: 0x1AB43, size: 0x8, addend: 0x0, symName: __ZNSt3__119__copy_trivial_implB8ue170006IK14position_timesS1_EENS_4pairIPT_PT0_EES5_S5_S7_, symObjAddr: 0x35E60, symBinAddr: 0x1000367C0, symSize: 0xE0 }
  - { offsetInCU: 0x1ABAB, offset: 0x1ABAB, size: 0x8, addend: 0x0, symName: __ZNSt3__119__constexpr_memmoveB8ue170006I14position_timesKS1_Li0EEEPT_S4_PT0_NS_15__element_countE, symObjAddr: 0x35F40, symBinAddr: 0x1000368A0, symSize: 0x60 }
  - { offsetInCU: 0x1AC19, offset: 0x1AC19, size: 0x8, addend: 0x0, symName: __ZNSt3__19make_pairB8ue170006IRPK14position_timesPS1_EENS_4pairINS_18__unwrap_ref_decayIT_E4typeENS7_IT0_E4typeEEEOS8_OSB_, symObjAddr: 0x35FA0, symBinAddr: 0x100036900, symSize: 0xA0 }
  - { offsetInCU: 0x1AC68, offset: 0x1AC68, size: 0x8, addend: 0x0, symName: __ZNSt3__113__rewrap_iterB8ue170006IPK14position_timesS3_NS_18__unwrap_iter_implIS3_Lb1EEEEET_S6_T0_, symObjAddr: 0x362F0, symBinAddr: 0x100036C50, symSize: 0x40 }
  - { offsetInCU: 0x1ACBD, offset: 0x1ACBD, size: 0x8, addend: 0x0, symName: __ZNSt3__110__distanceB8ue170006IPK14position_timesEENS_15iterator_traitsIT_E15difference_typeES5_S5_NS_26random_access_iterator_tagE, symObjAddr: 0x363F0, symBinAddr: 0x100036D50, symSize: 0x30 }
  - { offsetInCU: 0x1AD0B, offset: 0x1AD0B, size: 0x8, addend: 0x0, symName: __ZNSt3__116__pad_and_outputB8ue170006IcNS_11char_traitsIcEEEENS_19ostreambuf_iteratorIT_T0_EES6_PKS4_S8_S8_RNS_8ios_baseES4_, symObjAddr: 0x38090, symBinAddr: 0x1000389F0, symSize: 0x6D0 }
  - { offsetInCU: 0x1ADDB, offset: 0x1ADDB, size: 0x8, addend: 0x0, symName: __ZNSt3__19use_facetB8ue170006INS_5ctypeIcEEEERKT_RKNS_6localeE, symObjAddr: 0x39750, symBinAddr: 0x10003A0B0, symSize: 0x160 }
  - { offsetInCU: 0x1B2DB, offset: 0x1B2DB, size: 0x8, addend: 0x0, symName: __ZNSt3__110destroy_atB8ue170006INS_4pairIKc10piece_typeEELi0EEEvPT_, symObjAddr: 0x3B150, symBinAddr: 0x10003BAB0, symSize: 0x30 }
  - { offsetInCU: 0x1B312, offset: 0x1B312, size: 0x8, addend: 0x0, symName: __ZNSt3__112__destroy_atB8ue170006INS_4pairIKc10piece_typeEELi0EEEvPT_, symObjAddr: 0x3B180, symBinAddr: 0x10003BAE0, symSize: 0x20 }
  - { offsetInCU: 0x1B349, offset: 0x1B349, size: 0x8, addend: 0x0, symName: __ZNSt3__17launderB8ue170006INS_4pairIKc10piece_typeEEEEPT_S6_, symObjAddr: 0x3B200, symBinAddr: 0x10003BB60, symSize: 0x30 }
  - { offsetInCU: 0x1B380, offset: 0x1B380, size: 0x8, addend: 0x0, symName: __ZNSt3__19__launderB8ue170006INS_4pairIKc10piece_typeEEEEPT_S6_, symObjAddr: 0x3B230, symBinAddr: 0x10003BB90, symSize: 0x20 }
  - { offsetInCU: 0x1B3B7, offset: 0x1B3B7, size: 0x8, addend: 0x0, symName: __ZNSt3__116forward_as_tupleB8ue170006IJcEEENS_5tupleIJDpOT_EEES4_, symObjAddr: 0x3D050, symBinAddr: 0x10003D9B0, symSize: 0x50 }
  - { offsetInCU: 0x1B3F0, offset: 0x1B3F0, size: 0x8, addend: 0x0, symName: __ZNSt3__17launderB8ue170006IKNS_4pairIKc10piece_typeEEEEPT_S7_, symObjAddr: 0x3EB80, symBinAddr: 0x10003F4E0, symSize: 0x30 }
  - { offsetInCU: 0x1B427, offset: 0x1B427, size: 0x8, addend: 0x0, symName: __ZNSt3__19__launderB8ue170006IKNS_4pairIKc10piece_typeEEEEPT_S7_, symObjAddr: 0x3EBB0, symBinAddr: 0x10003F510, symSize: 0x20 }
  - { offsetInCU: 0x1B4A2, offset: 0x1B4A2, size: 0x8, addend: 0x0, symName: __ZNSt3__112construct_atB8ue170006INS_4pairIKc10piece_typeEEJRKNS_21piecewise_construct_tENS_5tupleIJOcEEENS8_IJEEEEPS4_EEPT_SE_DpOT0_, symObjAddr: 0x3F370, symBinAddr: 0x10003FCD0, symSize: 0x90 }
  - { offsetInCU: 0x1B53A, offset: 0x1B53A, size: 0x8, addend: 0x0, symName: __ZNSt3__13getB8ue170006ILm0EJOcEEERNS_13tuple_elementIXT_ENS_5tupleIJDpT0_EEEE4typeERS6_, symObjAddr: 0x3F560, symBinAddr: 0x10003FEC0, symSize: 0xA0 }
  - { offsetInCU: 0x1B5C5, offset: 0x1B5C5, size: 0x8, addend: 0x0, symName: __ZNSt3__118__cxx_atomic_storeB8ue170006IbEEvPNS_22__cxx_atomic_base_implIT_EES2_NS_12memory_orderE, symObjAddr: 0x41750, symBinAddr: 0x1000420B0, symSize: 0xD0 }
  - { offsetInCU: 0x1BA13, offset: 0x1BA13, size: 0x8, addend: 0x0, symName: __ZNSt3__122__libcpp_thread_createB8ue170006EPP17_opaque_pthread_tPFPvS3_ES3_, symObjAddr: 0x41D30, symBinAddr: 0x100042690, symSize: 0x40 }
  - { offsetInCU: 0x1BA5F, offset: 0x1BA5F, size: 0x8, addend: 0x0, symName: __ZNSt3__114__thread_proxyB8ue170006INS_5tupleIJNS_10unique_ptrINS_15__thread_structENS_14default_deleteIS3_EEEEPFvP11thread_syncES8_EEEEEPvSC_, symObjAddr: 0x41D70, symBinAddr: 0x1000426D0, symSize: 0x170 }
  - { offsetInCU: 0x1BBA8, offset: 0x1BBA8, size: 0x8, addend: 0x0, symName: __ZNSt3__13getB8ue170006ILm0EJNS_10unique_ptrINS_15__thread_structENS_14default_deleteIS2_EEEEPFvP11thread_syncES7_EEERNS_13tuple_elementIXT_ENS_5tupleIJDpT0_EEEE4typeERSE_, symObjAddr: 0x43370, symBinAddr: 0x100043CD0, symSize: 0xB0 }
  - { offsetInCU: 0x1BBF5, offset: 0x1BBF5, size: 0x8, addend: 0x0, symName: __ZNSt3__116__thread_executeB8ue170006INS_10unique_ptrINS_15__thread_structENS_14default_deleteIS2_EEEEPFvP11thread_syncEJS7_EJLm2EEEEvRNS_5tupleIJT_T0_DpT1_EEENS_15__tuple_indicesIJXspT2_EEEE, symObjAddr: 0x43420, symBinAddr: 0x100043D80, symSize: 0x110 }
  - { offsetInCU: 0x1BC51, offset: 0x1BC51, size: 0x8, addend: 0x0, symName: __ZNSt3__116__libcpp_tls_setB8ue170006EmPv, symObjAddr: 0x43530, symBinAddr: 0x100043E90, symSize: 0x30 }
  - { offsetInCU: 0x1BC8E, offset: 0x1BC8E, size: 0x8, addend: 0x0, symName: __ZNSt3__18__invokeB8ue170006IPFvP11thread_syncEJS2_EEEDTclclsr3stdE7declvalIT_EEspclsr3stdE7declvalIT0_EEEEOS5_DpOS6_, symObjAddr: 0x435E0, symBinAddr: 0x100043F40, symSize: 0xC0 }
  - { offsetInCU: 0x1BCDB, offset: 0x1BCDB, size: 0x8, addend: 0x0, symName: __ZNSt3__13getB8ue170006ILm1EJNS_10unique_ptrINS_15__thread_structENS_14default_deleteIS2_EEEEPFvP11thread_syncES7_EEERNS_13tuple_elementIXT_ENS_5tupleIJDpT0_EEEE4typeERSE_, symObjAddr: 0x436A0, symBinAddr: 0x100044000, symSize: 0xC0 }
  - { offsetInCU: 0x1BD28, offset: 0x1BD28, size: 0x8, addend: 0x0, symName: __ZNSt3__13getB8ue170006ILm2EJNS_10unique_ptrINS_15__thread_structENS_14default_deleteIS2_EEEEPFvP11thread_syncES7_EEERNS_13tuple_elementIXT_ENS_5tupleIJDpT0_EEEE4typeERSE_, symObjAddr: 0x43760, symBinAddr: 0x1000440C0, symSize: 0xC0 }
  - { offsetInCU: 0x1C25F, offset: 0x1C25F, size: 0x8, addend: 0x0, symName: __ZSt28__throw_bad_array_new_lengthB8ue170006v, symObjAddr: 0x10B30, symBinAddr: 0x100011490, symSize: 0x70 }
  - { offsetInCU: 0x1C539, offset: 0x1C539, size: 0x8, addend: 0x0, symName: __ZL2e2, symObjAddr: 0x13B9E0, symBinAddr: 0x100079070, symSize: 0x0 }
  - { offsetInCU: 0x1C578, offset: 0x1C578, size: 0x8, addend: 0x0, symName: __ZL4dist, symObjAddr: 0x13C3A8, symBinAddr: 0x100079A38, symSize: 0x0 }
  - { offsetInCU: 0x1C5BA, offset: 0x1C5BA, size: 0x8, addend: 0x0, symName: _transposition_table, symObjAddr: 0x13C3D0, symBinAddr: 0x100079A60, symSize: 0x0 }
  - { offsetInCU: 0x1CE6A, offset: 0x1CE6A, size: 0x8, addend: 0x0, symName: __ZL16piece_goodnesses, symObjAddr: 0x4D150, symBinAddr: 0x10004DF20, symSize: 0x0 }
  - { offsetInCU: 0x1CECC, offset: 0x1CECC, size: 0x8, addend: 0x0, symName: __ZN13piece_offsetsL10KING_QUEENE, symObjAddr: 0x518F0, symBinAddr: 0x1000526C0, symSize: 0x0 }
  - { offsetInCU: 0x1CEE5, offset: 0x1CEE5, size: 0x8, addend: 0x0, symName: __ZN13piece_offsetsL6BISHOPE, symObjAddr: 0x51A10, symBinAddr: 0x1000527E0, symSize: 0x0 }
  - { offsetInCU: 0x1CEFE, offset: 0x1CEFE, size: 0x8, addend: 0x0, symName: __ZN13piece_offsetsL6KNIGHTE, symObjAddr: 0x51A50, symBinAddr: 0x100052820, symSize: 0x0 }
  - { offsetInCU: 0x1CF17, offset: 0x1CF17, size: 0x8, addend: 0x0, symName: __ZN13piece_offsetsL4ROOKE, symObjAddr: 0x51A90, symBinAddr: 0x100052860, symSize: 0x0 }
  - { offsetInCU: 0x1D75C, offset: 0x1D75C, size: 0x8, addend: 0x0, symName: __ZNSt3__124uniform_int_distributionIyEclINS_23mersenne_twister_engineIyLm64ELm312ELm156ELm31ELy13043109905998158313ELm29ELy6148914691236517205ELm17ELy8202884508482404352ELm37ELy18444473444759240704ELm43ELy6364136223846793005EEEEEyRT_RKNS1_10param_typeE, symObjAddr: 0x9AF0, symBinAddr: 0x10000A450, symSize: 0x320 }
  - { offsetInCU: 0x1DA84, offset: 0x1DA84, size: 0x8, addend: 0x0, symName: __ZNSt3__16vectorI4moveNS_9allocatorIS1_EEE26__swap_out_circular_bufferERNS_14__split_bufferIS1_RS3_EE, symObjAddr: 0xF5B0, symBinAddr: 0x10000FF10, symSize: 0x3B0 }
  - { offsetInCU: 0x1DADD, offset: 0x1DADD, size: 0x8, addend: 0x0, symName: __Z3powB8ue170006IfiENSt3__19enable_ifIXaasr3std13is_arithmeticIT_EE5valuesr3std13is_arithmeticIT0_EE5valueENS0_9__promoteIS2_S3_vEEE4type4typeES2_S3_, symObjAddr: 0x1B030, symBinAddr: 0x10001B990, symSize: 0x40 }
  - { offsetInCU: 0x1DC4E, offset: 0x1DC4E, size: 0x8, addend: 0x0, symName: __ZNKSt3__16chrono15__duration_castINS0_8durationIxNS_5ratioILl1ELl1000000000EEEEENS2_IxNS3_ILl1ELl1000EEEEENS3_ILl1ELl1000000EEELb1ELb0EEclB8ue170006ERKS5_, symObjAddr: 0x2BAC0, symBinAddr: 0x10002C420, symSize: 0xD0 }
  - { offsetInCU: 0x1E47F, offset: 0x1E47F, size: 0x8, addend: 0x0, symName: __ZNKSt3__16chrono15__duration_castINS0_8durationIxNS_5ratioILl1ELl1000000000EEEEENS2_IxNS3_ILl1ELl1EEEEES4_Lb1ELb0EEclB8ue170006ERKS5_, symObjAddr: 0x2D120, symBinAddr: 0x10002DA80, symSize: 0xD0 }
  - { offsetInCU: 0x1E4BE, offset: 0x1E4BE, size: 0x8, addend: 0x0, symName: __ZNSt3__16vectorI14position_timesNS_9allocatorIS1_EEE26__swap_out_circular_bufferERNS_14__split_bufferIS1_RS3_EE, symObjAddr: 0x321C0, symBinAddr: 0x100032B20, symSize: 0x3B0 }
  - { offsetInCU: 0x201E3, offset: 0x201E3, size: 0x8, addend: 0x0, symName: __Z7isdigiti, symObjAddr: 0x1980, symBinAddr: 0x1000022E0, symSize: 0x30 }
  - { offsetInCU: 0x2027A, offset: 0x2027A, size: 0x8, addend: 0x0, symName: __Z7isupperi, symObjAddr: 0x1BB0, symBinAddr: 0x100002510, symSize: 0x30 }
  - { offsetInCU: 0x202BE, offset: 0x202BE, size: 0x8, addend: 0x0, symName: __Z7toloweri, symObjAddr: 0x1BE0, symBinAddr: 0x100002540, symSize: 0x30 }
  - { offsetInCU: 0x213FA, offset: 0x213FA, size: 0x8, addend: 0x0, symName: __Z15promote_messageP10SDL_Window, symObjAddr: 0x0, symBinAddr: 0x100000960, symSize: 0xD0 }
  - { offsetInCU: 0x21455, offset: 0x21455, size: 0x8, addend: 0x0, symName: __ZNSt3__113random_deviceC1B8ue170006Ev, symObjAddr: 0xD0, symBinAddr: 0x100000A30, symSize: 0xA0 }
  - { offsetInCU: 0x2147F, offset: 0x2147F, size: 0x8, addend: 0x0, symName: __ZNSt3__123mersenne_twister_engineIyLm64ELm312ELm156ELm31ELy13043109905998158313ELm29ELy6148914691236517205ELm17ELy8202884508482404352ELm37ELy18444473444759240704ELm43ELy6364136223846793005EEC1B8ue170006Ey, symObjAddr: 0x170, symBinAddr: 0x100000AD0, symSize: 0x60 }
  - { offsetInCU: 0x214B7, offset: 0x214B7, size: 0x8, addend: 0x0, symName: __ZNSt3__124uniform_int_distributionIyEC1B8ue170006Ev, symObjAddr: 0x1D0, symBinAddr: 0x100000B30, symSize: 0x60 }
  - { offsetInCU: 0x214E1, offset: 0x214E1, size: 0x8, addend: 0x0, symName: __ZN18TranspositionTableC1Ev, symObjAddr: 0x230, symBinAddr: 0x100000B90, symSize: 0x50 }
  - { offsetInCU: 0x2150B, offset: 0x2150B, size: 0x8, addend: 0x0, symName: __ZN18TranspositionTableD1Ev, symObjAddr: 0x280, symBinAddr: 0x100000BE0, symSize: 0x50 }
  - { offsetInCU: 0x21536, offset: 0x21536, size: 0x8, addend: 0x0, symName: __Z15fen_to_positionNSt3__117basic_string_viewIcNS_11char_traitsIcEEEE, symObjAddr: 0x2D0, symBinAddr: 0x100000C30, symSize: 0xF00 }
  - { offsetInCU: 0x2169F, offset: 0x2169F, size: 0x8, addend: 0x0, symName: __ZNSt3__113unordered_mapIc10piece_typeNS_4hashIcEENS_8equal_toIcEENS_9allocatorINS_4pairIKcS1_EEEEEC1B8ue170006Ev, symObjAddr: 0x11D0, symBinAddr: 0x100001B30, symSize: 0x50 }
  - { offsetInCU: 0x216C9, offset: 0x216C9, size: 0x8, addend: 0x0, symName: __ZNSt3__113unordered_mapIc10piece_typeNS_4hashIcEENS_8equal_toIcEENS_9allocatorINS_4pairIKcS1_EEEEEixEOc, symObjAddr: 0x1220, symBinAddr: 0x100001B80, symSize: 0x170 }
  - { offsetInCU: 0x21700, offset: 0x21700, size: 0x8, addend: 0x0, symName: __ZN8PositionC1Ev, symObjAddr: 0x1390, symBinAddr: 0x100001CF0, symSize: 0x40 }
  - { offsetInCU: 0x2172C, offset: 0x2172C, size: 0x8, addend: 0x0, symName: __ZNKSt3__117basic_string_viewIcNS_11char_traitsIcEEE5beginB8ue170006Ev, symObjAddr: 0x13D0, symBinAddr: 0x100001D30, symSize: 0x50 }
  - { offsetInCU: 0x21752, offset: 0x21752, size: 0x8, addend: 0x0, symName: __ZNKSt3__117basic_string_viewIcNS_11char_traitsIcEEE3endB8ue170006Ev, symObjAddr: 0x1420, symBinAddr: 0x100001D80, symSize: 0x50 }
  - { offsetInCU: 0x21778, offset: 0x21778, size: 0x8, addend: 0x0, symName: __ZL16messagebox_errorNSt3__112basic_stringIcNS_11char_traitsIcEENS_9allocatorIcEEEES5_, symObjAddr: 0x1470, symBinAddr: 0x100001DD0, symSize: 0xA0 }
  - { offsetInCU: 0x217B7, offset: 0x217B7, size: 0x8, addend: 0x0, symName: __ZNSt3__112basic_stringIcNS_11char_traitsIcEENS_9allocatorIcEEEC1B8ue170006ILi0EEEPKc, symObjAddr: 0x1510, symBinAddr: 0x100001E70, symSize: 0x60 }
  - { offsetInCU: 0x217F6, offset: 0x217F6, size: 0x8, addend: 0x0, symName: __ZNKSt3__117basic_string_viewIcNS_11char_traitsIcEEEixB8ue170006Em, symObjAddr: 0x1570, symBinAddr: 0x100001ED0, symSize: 0xD0 }
  - { offsetInCU: 0x2182B, offset: 0x2182B, size: 0x8, addend: 0x0, symName: __ZNKSt3__117basic_string_viewIcNS_11char_traitsIcEEE6lengthB8ue170006Ev, symObjAddr: 0x1640, symBinAddr: 0x100001FA0, symSize: 0x50 }
  - { offsetInCU: 0x21857, offset: 0x21857, size: 0x8, addend: 0x0, symName: __ZNSt3__18optionalIaEaSB8ue170006IivEERS1_OT_, symObjAddr: 0x1690, symBinAddr: 0x100001FF0, symSize: 0x130 }
  - { offsetInCU: 0x21896, offset: 0x21896, size: 0x8, addend: 0x0, symName: __ZNSt3__15arrayINS0_IbLm2EEELm2EEixB8ue170006Em, symObjAddr: 0x17C0, symBinAddr: 0x100002120, symSize: 0xE0 }
  - { offsetInCU: 0x218CA, offset: 0x218CA, size: 0x8, addend: 0x0, symName: __ZNSt3__15arrayIbLm2EEixB8ue170006Em, symObjAddr: 0x18A0, symBinAddr: 0x100002200, symSize: 0xE0 }
  - { offsetInCU: 0x218FE, offset: 0x218FE, size: 0x8, addend: 0x0, symName: __ZNSt3__18optionalI5pieceEC1B8ue170006Ev, symObjAddr: 0x19B0, symBinAddr: 0x100002310, symSize: 0x40 }
  - { offsetInCU: 0x21928, offset: 0x21928, size: 0x8, addend: 0x0, symName: __ZNSt3__15arrayINS0_INS_8optionalI5pieceEELm8EEELm8EEixB8ue170006Em, symObjAddr: 0x19F0, symBinAddr: 0x100002350, symSize: 0xE0 }
  - { offsetInCU: 0x2195C, offset: 0x2195C, size: 0x8, addend: 0x0, symName: __ZNSt3__15arrayINS_8optionalI5pieceEELm8EEixB8ue170006Em, symObjAddr: 0x1AD0, symBinAddr: 0x100002430, symSize: 0xE0 }
  - { offsetInCU: 0x21996, offset: 0x21996, size: 0x8, addend: 0x0, symName: __ZNSt3__18optionalI5pieceEaSB8ue170006IS1_vEERS2_OT_, symObjAddr: 0x1C10, symBinAddr: 0x100002570, symSize: 0xC0 }
  - { offsetInCU: 0x219D5, offset: 0x219D5, size: 0x8, addend: 0x0, symName: __ZNSt3__113unordered_mapIc10piece_typeNS_4hashIcEENS_8equal_toIcEENS_9allocatorINS_4pairIKcS1_EEEEED1B8ue170006Ev, symObjAddr: 0x1CD0, symBinAddr: 0x100002630, symSize: 0x50 }
  - { offsetInCU: 0x219FE, offset: 0x219FE, size: 0x8, addend: 0x0, symName: __Z18engine_thread_funcP11thread_sync, symObjAddr: 0x1D20, symBinAddr: 0x100002680, symSize: 0xA40 }
  - { offsetInCU: 0x21A60, offset: 0x21A60, size: 0x8, addend: 0x0, symName: __ZNK8Position14get_best_movesEv, symObjAddr: 0x2760, symBinAddr: 0x1000030C0, symSize: 0x1D0 }
  - { offsetInCU: 0x21ADB, offset: 0x21ADB, size: 0x8, addend: 0x0, symName: __ZNSt3__110lock_guardINS_5mutexEEC1B8ue170006ERS1_, symObjAddr: 0x2930, symBinAddr: 0x100003290, symSize: 0x60 }
  - { offsetInCU: 0x21B13, offset: 0x21B13, size: 0x8, addend: 0x0, symName: __ZNKSt3__123__optional_storage_baseI5pieceLb0EE9has_valueB8ue170006Ev, symObjAddr: 0x2990, symBinAddr: 0x1000032F0, symSize: 0x70 }
  - { offsetInCU: 0x21B39, offset: 0x21B39, size: 0x8, addend: 0x0, symName: __ZN10PieceMoves9make_moveE9board_posS0_P10SDL_Window, symObjAddr: 0x2A00, symBinAddr: 0x100003360, symSize: 0x1500 }
  - { offsetInCU: 0x21BFC, offset: 0x21BFC, size: 0x8, addend: 0x0, symName: __ZNSt3__16atomicIbEaSB8ue170006Eb, symObjAddr: 0x3F00, symBinAddr: 0x100004860, symSize: 0xB0 }
  - { offsetInCU: 0x21C30, offset: 0x21C30, size: 0x8, addend: 0x0, symName: __ZNKSt3__16chrono8durationIxNS_5ratioILl1ELl1000EEEE5countB8ue170006Ev, symObjAddr: 0x4160, symBinAddr: 0x100004AC0, symSize: 0x50 }
  - { offsetInCU: 0x21C56, offset: 0x21C56, size: 0x8, addend: 0x0, symName: __ZNSt3__110lock_guardINS_5mutexEED1B8ue170006Ev, symObjAddr: 0x41B0, symBinAddr: 0x100004B10, symSize: 0x50 }
  - { offsetInCU: 0x21C7F, offset: 0x21C7F, size: 0x8, addend: 0x0, symName: __Z17rollback_positionRNSt3__16vectorI14position_timesNS_9allocatorIS1_EEEERyRNS_8optionalI9board_posEER11thread_syncRNS_6chrono8durationIxNS_5ratioILl1ELl1EEEEESI_, symObjAddr: 0x4200, symBinAddr: 0x100004B60, symSize: 0x190 }
  - { offsetInCU: 0x21D0B, offset: 0x21D0B, size: 0x8, addend: 0x0, symName: __ZNKSt3__16vectorI14position_timesNS_9allocatorIS1_EEE4sizeB8ue170006Ev, symObjAddr: 0x4390, symBinAddr: 0x100004CF0, symSize: 0x60 }
  - { offsetInCU: 0x21DB6, offset: 0x21DB6, size: 0x8, addend: 0x0, symName: __ZNSt3__18optionalI9board_posEaSB8ue170006ENS_9nullopt_tE, symObjAddr: 0x43F0, symBinAddr: 0x100004D50, symSize: 0xB0 }
  - { offsetInCU: 0x21DE8, offset: 0x21DE8, size: 0x8, addend: 0x0, symName: __ZNSt3__16vectorI14position_timesNS_9allocatorIS1_EEE4backB8ue170006Ev, symObjAddr: 0x44A0, symBinAddr: 0x100004E00, symSize: 0xE0 }
  - { offsetInCU: 0x21E0E, offset: 0x21E0E, size: 0x8, addend: 0x0, symName: __ZNSt3__16vectorI14position_timesNS_9allocatorIS1_EEE8pop_backEv, symObjAddr: 0x4580, symBinAddr: 0x100004EE0, symSize: 0xB0 }
  - { offsetInCU: 0x21E35, offset: 0x21E35, size: 0x8, addend: 0x0, symName: __Z11play_engineR11thread_syncRNSt3__16threadE10audio_fileS4_, symObjAddr: 0x4630, symBinAddr: 0x100004F90, symSize: 0x2D0 }
  - { offsetInCU: 0x21E89, offset: 0x21E89, size: 0x8, addend: 0x0, symName: __ZNKSt3__113unordered_mapIy13zobrist_valueNS_4hashIyEENS_8equal_toIyEENS_9allocatorINS_4pairIKyS1_EEEEE4sizeB8ue170006Ev, symObjAddr: 0x49B0, symBinAddr: 0x100005310, symSize: 0x80 }
  - { offsetInCU: 0x21F80, offset: 0x21F80, size: 0x8, addend: 0x0, symName: __ZNSt3__16threadC1IRFvP11thread_syncEJS3_EvEEOT_DpOT0_, symObjAddr: 0x4A30, symBinAddr: 0x100005390, symSize: 0x60 }
  - { offsetInCU: 0x21FDB, offset: 0x21FDB, size: 0x8, addend: 0x0, symName: __ZNSt3__16threadaSB8ue170006EOS0_, symObjAddr: 0x4A90, symBinAddr: 0x1000053F0, symSize: 0x130 }
  - { offsetInCU: 0x2200E, offset: 0x2200E, size: 0x8, addend: 0x0, symName: __Z10load_audioPKcP10audio_file, symObjAddr: 0x4BC0, symBinAddr: 0x100005520, symSize: 0x3B0 }
  - { offsetInCU: 0x22045, offset: 0x22045, size: 0x8, addend: 0x0, symName: _main, symObjAddr: 0x4F70, symBinAddr: 0x1000058D0, symSize: 0x1A40 }
  - { offsetInCU: 0x2222F, offset: 0x2222F, size: 0x8, addend: 0x0, symName: __ZNSt3__15mutexC1B8ue170006Ev, symObjAddr: 0x69B0, symBinAddr: 0x100007310, symSize: 0x50 }
  - { offsetInCU: 0x22259, offset: 0x22259, size: 0x8, addend: 0x0, symName: __ZNSt3__16atomicIbEC1B8ue170006Ev, symObjAddr: 0x6A00, symBinAddr: 0x100007360, symSize: 0x40 }
  - { offsetInCU: 0x22283, offset: 0x22283, size: 0x8, addend: 0x0, symName: __ZNSt3__16vectorI14position_timesNS_9allocatorIS1_EEEC1B8ue170006Ev, symObjAddr: 0x6A40, symBinAddr: 0x1000073A0, symSize: 0x50 }
  - { offsetInCU: 0x222AD, offset: 0x222AD, size: 0x8, addend: 0x0, symName: __ZNSt3__16threadC1B8ue170006Ev, symObjAddr: 0x6A90, symBinAddr: 0x1000073F0, symSize: 0x50 }
  - { offsetInCU: 0x222D7, offset: 0x222D7, size: 0x8, addend: 0x0, symName: __ZN8BitboardC1Ev, symObjAddr: 0x6AE0, symBinAddr: 0x100007440, symSize: 0x50 }
  - { offsetInCU: 0x22303, offset: 0x22303, size: 0x8, addend: 0x0, symName: __ZNSt3__18optionalI9board_posEC1B8ue170006Ev, symObjAddr: 0x6B30, symBinAddr: 0x100007490, symSize: 0x50 }
  - { offsetInCU: 0x2241D, offset: 0x2241D, size: 0x8, addend: 0x0, symName: __ZN6CanvasC1EP12SDL_RendererP11SDL_TextureS3_, symObjAddr: 0x6B80, symBinAddr: 0x1000074E0, symSize: 0x70 }
  - { offsetInCU: 0x22471, offset: 0x22471, size: 0x8, addend: 0x0, symName: __ZNKSt3__16chrono8durationIxNS_5ratioILl1ELl1EEEE5countB8ue170006Ev, symObjAddr: 0x6BF0, symBinAddr: 0x100007550, symSize: 0x50 }
  - { offsetInCU: 0x22497, offset: 0x22497, size: 0x8, addend: 0x0, symName: __ZNSt3__16chrono8durationIxNS_5ratioILl1ELl1EEEEmmB8ue170006Ei, symObjAddr: 0x6CB0, symBinAddr: 0x100007610, symSize: 0xB0 }
  - { offsetInCU: 0x224C9, offset: 0x224C9, size: 0x8, addend: 0x0, symName: __ZNKSt3__113__atomic_baseIbLb0EEcvbB8ue170006Ev, symObjAddr: 0x6D60, symBinAddr: 0x1000076C0, symSize: 0x50 }
  - { offsetInCU: 0x224EF, offset: 0x224EF, size: 0x8, addend: 0x0, symName: __ZN9board_pos8is_validEv, symObjAddr: 0x6DB0, symBinAddr: 0x100007710, symSize: 0xA0 }
  - { offsetInCU: 0x22515, offset: 0x22515, size: 0x8, addend: 0x0, symName: __ZNKSt3__123__optional_storage_baseI9board_posLb0EE9has_valueB8ue170006Ev, symObjAddr: 0x6E50, symBinAddr: 0x1000077B0, symSize: 0xA0 }
  - { offsetInCU: 0x2253B, offset: 0x2253B, size: 0x8, addend: 0x0, symName: __ZNSt3__18optionalI5pieceEptB8ue170006Ev, symObjAddr: 0x6EF0, symBinAddr: 0x100007850, symSize: 0x40 }
  - { offsetInCU: 0x22567, offset: 0x22567, size: 0x8, addend: 0x0, symName: __ZNSt3__18optionalI9board_posEaSB8ue170006IRS1_vEERS2_OT_, symObjAddr: 0x6F30, symBinAddr: 0x100007890, symSize: 0x160 }
  - { offsetInCU: 0x225A6, offset: 0x225A6, size: 0x8, addend: 0x0, symName: __ZNK10PieceMoves9get_movesE9board_pos, symObjAddr: 0x7090, symBinAddr: 0x1000079F0, symSize: 0x250 }
  - { offsetInCU: 0x225DA, offset: 0x225DA, size: 0x8, addend: 0x0, symName: __ZN8Bitboard3getE9board_pos, symObjAddr: 0x72E0, symBinAddr: 0x100007C40, symSize: 0x140 }
  - { offsetInCU: 0x2260E, offset: 0x2260E, size: 0x8, addend: 0x0, symName: __ZNSt3__16vectorI14position_timesNS_9allocatorIS1_EEE9push_backB8ue170006EOS1_, symObjAddr: 0x7420, symBinAddr: 0x100007D80, symSize: 0x130 }
  - { offsetInCU: 0x22645, offset: 0x22645, size: 0x8, addend: 0x0, symName: __ZNRSt3__18optionalI9board_posE5valueB8ue170006Ev, symObjAddr: 0x7550, symBinAddr: 0x100007EB0, symSize: 0x100 }
  - { offsetInCU: 0x2266B, offset: 0x2266B, size: 0x8, addend: 0x0, symName: __ZNSt3__16vectorI14position_timesNS_9allocatorIS1_EEE5clearB8ue170006Ev, symObjAddr: 0x7650, symBinAddr: 0x100007FB0, symSize: 0x70 }
  - { offsetInCU: 0x226A0, offset: 0x226A0, size: 0x8, addend: 0x0, symName: __ZNSt16initializer_listI14position_timesEC1B8ue170006Ev, symObjAddr: 0x77A0, symBinAddr: 0x100008100, symSize: 0x50 }
  - { offsetInCU: 0x226CA, offset: 0x226CA, size: 0x8, addend: 0x0, symName: __ZNSt3__16vectorI14position_timesNS_9allocatorIS1_EEEaSB8ue170006ESt16initializer_listIS1_E, symObjAddr: 0x77F0, symBinAddr: 0x100008150, symSize: 0xB0 }
  - { offsetInCU: 0x226FF, offset: 0x226FF, size: 0x8, addend: 0x0, symName: __ZN6Canvas4drawENSt3__16chrono8durationIxNS0_5ratioILl1ELl1EEEEES5_RKNS0_5arrayINS6_INS0_8optionalI5pieceEELm8EEELm8EEE8Bitboard11piece_color, symObjAddr: 0x78A0, symBinAddr: 0x100008200, symSize: 0x800 }
  - { offsetInCU: 0x22809, offset: 0x22809, size: 0x8, addend: 0x0, symName: __ZNSt3__16vectorI14position_timesNS_9allocatorIS1_EEED1B8ue170006Ev, symObjAddr: 0x80A0, symBinAddr: 0x100008A00, symSize: 0x50 }
  - { offsetInCU: 0x22839, offset: 0x22839, size: 0x8, addend: 0x0, symName: __ZN11thread_syncD1Ev, symObjAddr: 0x80F0, symBinAddr: 0x100008A50, symSize: 0x50 }
  - { offsetInCU: 0x22865, offset: 0x22865, size: 0x8, addend: 0x0, symName: __ZN18TranspositionTableC2Ev, symObjAddr: 0x8140, symBinAddr: 0x100008AA0, symSize: 0xB0 }
  - { offsetInCU: 0x2288F, offset: 0x2288F, size: 0x8, addend: 0x0, symName: __ZNSt3__113unordered_mapIy13zobrist_valueNS_4hashIyEENS_8equal_toIyEENS_9allocatorINS_4pairIKyS1_EEEEEC1B8ue170006Ev, symObjAddr: 0x81F0, symBinAddr: 0x100008B50, symSize: 0x50 }
  - { offsetInCU: 0x228B9, offset: 0x228B9, size: 0x8, addend: 0x0, symName: __ZN18TranspositionTable10set_piecesEv, symObjAddr: 0x8240, symBinAddr: 0x100008BA0, symSize: 0x250 }
  - { offsetInCU: 0x22933, offset: 0x22933, size: 0x8, addend: 0x0, symName: __ZN18TranspositionTable10set_castleEv, symObjAddr: 0x8490, symBinAddr: 0x100008DF0, symSize: 0x1C0 }
  - { offsetInCU: 0x22991, offset: 0x22991, size: 0x8, addend: 0x0, symName: __ZN18TranspositionTable14set_en_passantEv, symObjAddr: 0x8650, symBinAddr: 0x100008FB0, symSize: 0x130 }
  - { offsetInCU: 0x229D3, offset: 0x229D3, size: 0x8, addend: 0x0, symName: __ZNSt3__113unordered_mapIy13zobrist_valueNS_4hashIyEENS_8equal_toIyEENS_9allocatorINS_4pairIKyS1_EEEEED1B8ue170006Ev, symObjAddr: 0x8780, symBinAddr: 0x1000090E0, symSize: 0x50 }
  - { offsetInCU: 0x229FD, offset: 0x229FD, size: 0x8, addend: 0x0, symName: __ZNSt3__113unordered_mapIy13zobrist_valueNS_4hashIyEENS_8equal_toIyEENS_9allocatorINS_4pairIKyS1_EEEEEC2B8ue170006Ev, symObjAddr: 0x87D0, symBinAddr: 0x100009130, symSize: 0x50 }
  - { offsetInCU: 0x22A27, offset: 0x22A27, size: 0x8, addend: 0x0, symName: __ZNSt3__112__hash_tableINS_17__hash_value_typeIy13zobrist_valueEENS_22__unordered_map_hasherIyS3_NS_4hashIyEENS_8equal_toIyEELb1EEENS_21__unordered_map_equalIyS3_S8_S6_Lb1EEENS_9allocatorIS3_EEEC1Ev, symObjAddr: 0x8820, symBinAddr: 0x100009180, symSize: 0x50 }
  - { offsetInCU: 0x22A53, offset: 0x22A53, size: 0x8, addend: 0x0, symName: __ZNSt3__112__hash_tableINS_17__hash_value_typeIy13zobrist_valueEENS_22__unordered_map_hasherIyS3_NS_4hashIyEENS_8equal_toIyEELb1EEENS_21__unordered_map_equalIyS3_S8_S6_Lb1EEENS_9allocatorIS3_EEEC2Ev, symObjAddr: 0x8870, symBinAddr: 0x1000091D0, symSize: 0xB0 }
  - { offsetInCU: 0x22A7F, offset: 0x22A7F, size: 0x8, addend: 0x0, symName: __ZNSt3__110unique_ptrIA_PNS_16__hash_node_baseIPNS_11__hash_nodeINS_17__hash_value_typeIy13zobrist_valueEEPvEEEENS_25__bucket_list_deallocatorINS_9allocatorISA_EEEEEC1B8ue170006ILb1EvEEv, symObjAddr: 0x8920, symBinAddr: 0x100009280, symSize: 0x50 }
  - { offsetInCU: 0x22AB4, offset: 0x22AB4, size: 0x8, addend: 0x0, symName: __ZNSt3__117__compressed_pairINS_16__hash_node_baseIPNS_11__hash_nodeINS_17__hash_value_typeIy13zobrist_valueEEPvEEEENS_9allocatorIS7_EEEC1B8ue170006ILb1EvEEv, symObjAddr: 0x8970, symBinAddr: 0x1000092D0, symSize: 0x50 }
  - { offsetInCU: 0x22AEF, offset: 0x22AEF, size: 0x8, addend: 0x0, symName: __ZNSt3__117__compressed_pairImNS_22__unordered_map_hasherIyNS_17__hash_value_typeIy13zobrist_valueEENS_4hashIyEENS_8equal_toIyEELb1EEEEC1B8ue170006IiNS_18__default_init_tagEEEOT_OT0_, symObjAddr: 0x89D0, symBinAddr: 0x100009330, symSize: 0x60 }
  - { offsetInCU: 0x22B4D, offset: 0x22B4D, size: 0x8, addend: 0x0, symName: __ZNSt3__117__compressed_pairIfNS_21__unordered_map_equalIyNS_17__hash_value_typeIy13zobrist_valueEENS_8equal_toIyEENS_4hashIyEELb1EEEEC1B8ue170006IfNS_18__default_init_tagEEEOT_OT0_, symObjAddr: 0x8A30, symBinAddr: 0x100009390, symSize: 0x60 }
  - { offsetInCU: 0x22BA5, offset: 0x22BA5, size: 0x8, addend: 0x0, symName: __ZNSt3__110unique_ptrIA_PNS_16__hash_node_baseIPNS_11__hash_nodeINS_17__hash_value_typeIy13zobrist_valueEEPvEEEENS_25__bucket_list_deallocatorINS_9allocatorISA_EEEEEC2B8ue170006ILb1EvEEv, symObjAddr: 0x8A90, symBinAddr: 0x1000093F0, symSize: 0x70 }
  - { offsetInCU: 0x22BE0, offset: 0x22BE0, size: 0x8, addend: 0x0, symName: __ZNSt3__117__compressed_pairIPPNS_16__hash_node_baseIPNS_11__hash_nodeINS_17__hash_value_typeIy13zobrist_valueEEPvEEEENS_25__bucket_list_deallocatorINS_9allocatorISA_EEEEEC1B8ue170006INS_16__value_init_tagESI_EEOT_OT0_, symObjAddr: 0x8B00, symBinAddr: 0x100009460, symSize: 0x60 }
  - { offsetInCU: 0x22C38, offset: 0x22C38, size: 0x8, addend: 0x0, symName: __ZNSt3__117__compressed_pairIPPNS_16__hash_node_baseIPNS_11__hash_nodeINS_17__hash_value_typeIy13zobrist_valueEEPvEEEENS_25__bucket_list_deallocatorINS_9allocatorISA_EEEEEC2B8ue170006INS_16__value_init_tagESI_EEOT_OT0_, symObjAddr: 0x8B60, symBinAddr: 0x1000094C0, symSize: 0xD0 }
  - { offsetInCU: 0x22C90, offset: 0x22C90, size: 0x8, addend: 0x0, symName: __ZNSt3__122__compressed_pair_elemIPPNS_16__hash_node_baseIPNS_11__hash_nodeINS_17__hash_value_typeIy13zobrist_valueEEPvEEEELi0ELb0EEC2B8ue170006ENS_16__value_init_tagE, symObjAddr: 0x8C30, symBinAddr: 0x100009590, symSize: 0x60 }
  - { offsetInCU: 0x22CC5, offset: 0x22CC5, size: 0x8, addend: 0x0, symName: __ZNSt3__122__compressed_pair_elemINS_25__bucket_list_deallocatorINS_9allocatorIPNS_16__hash_node_baseIPNS_11__hash_nodeINS_17__hash_value_typeIy13zobrist_valueEEPvEEEEEEEELi1ELb0EEC2B8ue170006ENS_16__value_init_tagE, symObjAddr: 0x8C90, symBinAddr: 0x1000095F0, symSize: 0x50 }
  - { offsetInCU: 0x22CFA, offset: 0x22CFA, size: 0x8, addend: 0x0, symName: __ZNSt3__125__bucket_list_deallocatorINS_9allocatorIPNS_16__hash_node_baseIPNS_11__hash_nodeINS_17__hash_value_typeIy13zobrist_valueEEPvEEEEEEEC1B8ue170006Ev, symObjAddr: 0x8CE0, symBinAddr: 0x100009640, symSize: 0x50 }
  - { offsetInCU: 0x22D24, offset: 0x22D24, size: 0x8, addend: 0x0, symName: __ZNSt3__125__bucket_list_deallocatorINS_9allocatorIPNS_16__hash_node_baseIPNS_11__hash_nodeINS_17__hash_value_typeIy13zobrist_valueEEPvEEEEEEEC2B8ue170006Ev, symObjAddr: 0x8D30, symBinAddr: 0x100009690, symSize: 0x70 }
  - { offsetInCU: 0x22D4E, offset: 0x22D4E, size: 0x8, addend: 0x0, symName: __ZNSt3__117__compressed_pairImNS_9allocatorIPNS_16__hash_node_baseIPNS_11__hash_nodeINS_17__hash_value_typeIy13zobrist_valueEEPvEEEEEEEC1B8ue170006IiNS_18__default_init_tagEEEOT_OT0_, symObjAddr: 0x8DA0, symBinAddr: 0x100009700, symSize: 0x60 }
  - { offsetInCU: 0x22DA6, offset: 0x22DA6, size: 0x8, addend: 0x0, symName: __ZNSt3__117__compressed_pairImNS_9allocatorIPNS_16__hash_node_baseIPNS_11__hash_nodeINS_17__hash_value_typeIy13zobrist_valueEEPvEEEEEEEC2B8ue170006IiNS_18__default_init_tagEEEOT_OT0_, symObjAddr: 0x8E00, symBinAddr: 0x100009760, symSize: 0xF0 }
  - { offsetInCU: 0x22DFE, offset: 0x22DFE, size: 0x8, addend: 0x0, symName: __ZNSt3__122__compressed_pair_elemImLi0ELb0EEC2B8ue170006IivEEOT_, symObjAddr: 0x8EF0, symBinAddr: 0x100009850, symSize: 0x90 }
  - { offsetInCU: 0x22E40, offset: 0x22E40, size: 0x8, addend: 0x0, symName: __ZNSt3__122__compressed_pair_elemINS_9allocatorIPNS_16__hash_node_baseIPNS_11__hash_nodeINS_17__hash_value_typeIy13zobrist_valueEEPvEEEEEELi1ELb1EEC2B8ue170006ENS_18__default_init_tagE, symObjAddr: 0x8F80, symBinAddr: 0x1000098E0, symSize: 0x60 }
  - { offsetInCU: 0x22E75, offset: 0x22E75, size: 0x8, addend: 0x0, symName: __ZNSt3__19allocatorIPNS_16__hash_node_baseIPNS_11__hash_nodeINS_17__hash_value_typeIy13zobrist_valueEEPvEEEEEC2B8ue170006Ev, symObjAddr: 0x8FE0, symBinAddr: 0x100009940, symSize: 0x60 }
  - { offsetInCU: 0x22E9F, offset: 0x22E9F, size: 0x8, addend: 0x0, symName: __ZNSt3__116__non_trivial_ifILb1ENS_9allocatorIPNS_16__hash_node_baseIPNS_11__hash_nodeINS_17__hash_value_typeIy13zobrist_valueEEPvEEEEEEEC2B8ue170006Ev, symObjAddr: 0x9040, symBinAddr: 0x1000099A0, symSize: 0x40 }
  - { offsetInCU: 0x22EC9, offset: 0x22EC9, size: 0x8, addend: 0x0, symName: __ZNSt3__117__compressed_pairINS_16__hash_node_baseIPNS_11__hash_nodeINS_17__hash_value_typeIy13zobrist_valueEEPvEEEENS_9allocatorIS7_EEEC2B8ue170006ILb1EvEEv, symObjAddr: 0x9080, symBinAddr: 0x1000099E0, symSize: 0xB0 }
  - { offsetInCU: 0x22EFE, offset: 0x22EFE, size: 0x8, addend: 0x0, symName: __ZNSt3__122__compressed_pair_elemINS_16__hash_node_baseIPNS_11__hash_nodeINS_17__hash_value_typeIy13zobrist_valueEEPvEEEELi0ELb0EEC2B8ue170006ENS_16__value_init_tagE, symObjAddr: 0x9130, symBinAddr: 0x100009A90, symSize: 0x50 }
  - { offsetInCU: 0x22F33, offset: 0x22F33, size: 0x8, addend: 0x0, symName: __ZNSt3__122__compressed_pair_elemINS_9allocatorINS_11__hash_nodeINS_17__hash_value_typeIy13zobrist_valueEEPvEEEELi1ELb1EEC2B8ue170006ENS_16__value_init_tagE, symObjAddr: 0x9180, symBinAddr: 0x100009AE0, symSize: 0x60 }
  - { offsetInCU: 0x22F68, offset: 0x22F68, size: 0x8, addend: 0x0, symName: __ZNSt3__116__hash_node_baseIPNS_11__hash_nodeINS_17__hash_value_typeIy13zobrist_valueEEPvEEEC1B8ue170006Ev, symObjAddr: 0x91E0, symBinAddr: 0x100009B40, symSize: 0x50 }
  - { offsetInCU: 0x22F92, offset: 0x22F92, size: 0x8, addend: 0x0, symName: __ZNSt3__116__hash_node_baseIPNS_11__hash_nodeINS_17__hash_value_typeIy13zobrist_valueEEPvEEEC2B8ue170006Ev, symObjAddr: 0x9230, symBinAddr: 0x100009B90, symSize: 0x60 }
  - { offsetInCU: 0x22FBC, offset: 0x22FBC, size: 0x8, addend: 0x0, symName: __ZNSt3__19allocatorINS_11__hash_nodeINS_17__hash_value_typeIy13zobrist_valueEEPvEEEC2B8ue170006Ev, symObjAddr: 0x9290, symBinAddr: 0x100009BF0, symSize: 0x60 }
  - { offsetInCU: 0x22FE6, offset: 0x22FE6, size: 0x8, addend: 0x0, symName: __ZNSt3__116__non_trivial_ifILb1ENS_9allocatorINS_11__hash_nodeINS_17__hash_value_typeIy13zobrist_valueEEPvEEEEEC2B8ue170006Ev, symObjAddr: 0x92F0, symBinAddr: 0x100009C50, symSize: 0x40 }
  - { offsetInCU: 0x23010, offset: 0x23010, size: 0x8, addend: 0x0, symName: __ZNSt3__117__compressed_pairImNS_22__unordered_map_hasherIyNS_17__hash_value_typeIy13zobrist_valueEENS_4hashIyEENS_8equal_toIyEELb1EEEEC2B8ue170006IiNS_18__default_init_tagEEEOT_OT0_, symObjAddr: 0x9330, symBinAddr: 0x100009C90, symSize: 0xF0 }
  - { offsetInCU: 0x23068, offset: 0x23068, size: 0x8, addend: 0x0, symName: __ZNSt3__122__compressed_pair_elemINS_22__unordered_map_hasherIyNS_17__hash_value_typeIy13zobrist_valueEENS_4hashIyEENS_8equal_toIyEELb1EEELi1ELb1EEC2B8ue170006ENS_18__default_init_tagE, symObjAddr: 0x9420, symBinAddr: 0x100009D80, symSize: 0x60 }
  - { offsetInCU: 0x2309D, offset: 0x2309D, size: 0x8, addend: 0x0, symName: __ZNSt3__122__unordered_map_hasherIyNS_17__hash_value_typeIy13zobrist_valueEENS_4hashIyEENS_8equal_toIyEELb1EEC2B8ue170006Ev, symObjAddr: 0x9480, symBinAddr: 0x100009DE0, symSize: 0x40 }
  - { offsetInCU: 0x230C7, offset: 0x230C7, size: 0x8, addend: 0x0, symName: __ZNSt3__117__compressed_pairIfNS_21__unordered_map_equalIyNS_17__hash_value_typeIy13zobrist_valueEENS_8equal_toIyEENS_4hashIyEELb1EEEEC2B8ue170006IfNS_18__default_init_tagEEEOT_OT0_, symObjAddr: 0x94C0, symBinAddr: 0x100009E20, symSize: 0xF0 }
  - { offsetInCU: 0x2311F, offset: 0x2311F, size: 0x8, addend: 0x0, symName: __ZNSt3__122__compressed_pair_elemIfLi0ELb0EEC2B8ue170006IfvEEOT_, symObjAddr: 0x95B0, symBinAddr: 0x100009F10, symSize: 0x90 }
  - { offsetInCU: 0x23161, offset: 0x23161, size: 0x8, addend: 0x0, symName: __ZNSt3__122__compressed_pair_elemINS_21__unordered_map_equalIyNS_17__hash_value_typeIy13zobrist_valueEENS_8equal_toIyEENS_4hashIyEELb1EEELi1ELb1EEC2B8ue170006ENS_18__default_init_tagE, symObjAddr: 0x9640, symBinAddr: 0x100009FA0, symSize: 0x60 }
  - { offsetInCU: 0x23196, offset: 0x23196, size: 0x8, addend: 0x0, symName: __ZNSt3__121__unordered_map_equalIyNS_17__hash_value_typeIy13zobrist_valueEENS_8equal_toIyEENS_4hashIyEELb1EEC2B8ue170006Ev, symObjAddr: 0x96A0, symBinAddr: 0x10000A000, symSize: 0x40 }
  - { offsetInCU: 0x231C0, offset: 0x231C0, size: 0x8, addend: 0x0, symName: __ZNSt3__124uniform_int_distributionIyEclB8ue170006INS_23mersenne_twister_engineIyLm64ELm312ELm156ELm31ELy13043109905998158313ELm29ELy6148914691236517205ELm17ELy8202884508482404352ELm37ELy18444473444759240704ELm43ELy6364136223846793005EEEEEyRT_, symObjAddr: 0x96E0, symBinAddr: 0x10000A040, symSize: 0xF0 }
  - { offsetInCU: 0x231FD, offset: 0x231FD, size: 0x8, addend: 0x0, symName: __ZNSt3__15arrayINS0_INS0_IyLm12EEELm8EEELm8EEixB8ue170006Em, symObjAddr: 0x97D0, symBinAddr: 0x10000A130, symSize: 0x110 }
  - { offsetInCU: 0x23231, offset: 0x23231, size: 0x8, addend: 0x0, symName: __ZNSt3__15arrayINS0_IyLm12EEELm8EEixB8ue170006Em, symObjAddr: 0x98E0, symBinAddr: 0x10000A240, symSize: 0x110 }
  - { offsetInCU: 0x23265, offset: 0x23265, size: 0x8, addend: 0x0, symName: __ZNSt3__15arrayIyLm12EEixB8ue170006Em, symObjAddr: 0x99F0, symBinAddr: 0x10000A350, symSize: 0x100 }
  - { offsetInCU: 0x23299, offset: 0x23299, size: 0x8, addend: 0x0, symName: __ZNKSt3__124uniform_int_distributionIyE10param_type1bB8ue170006Ev, symObjAddr: 0x9E10, symBinAddr: 0x10000A770, symSize: 0x50 }
  - { offsetInCU: 0x232BF, offset: 0x232BF, size: 0x8, addend: 0x0, symName: __ZNKSt3__124uniform_int_distributionIyE10param_type1aB8ue170006Ev, symObjAddr: 0x9E60, symBinAddr: 0x10000A7C0, symSize: 0x50 }
  - { offsetInCU: 0x232E5, offset: 0x232E5, size: 0x8, addend: 0x0, symName: __ZNSt3__125__independent_bits_engineINS_23mersenne_twister_engineIyLm64ELm312ELm156ELm31ELy13043109905998158313ELm29ELy6148914691236517205ELm17ELy8202884508482404352ELm37ELy18444473444759240704ELm43ELy6364136223846793005EEEyEC1ERS2_m, symObjAddr: 0x9EB0, symBinAddr: 0x10000A810, symSize: 0x60 }
  - { offsetInCU: 0x2332C, offset: 0x2332C, size: 0x8, addend: 0x0, symName: __ZNSt3__125__independent_bits_engineINS_23mersenne_twister_engineIyLm64ELm312ELm156ELm31ELy13043109905998158313ELm29ELy6148914691236517205ELm17ELy8202884508482404352ELm37ELy18444473444759240704ELm43ELy6364136223846793005EEEyEclB8ue170006Ev, symObjAddr: 0x9F10, symBinAddr: 0x10000A870, symSize: 0x50 }
  - { offsetInCU: 0x23352, offset: 0x23352, size: 0x8, addend: 0x0, symName: __ZNSt3__114numeric_limitsIyE3maxB8ue170006Ev, symObjAddr: 0x9FD0, symBinAddr: 0x10000A930, symSize: 0x20 }
  - { offsetInCU: 0x23366, offset: 0x23366, size: 0x8, addend: 0x0, symName: __ZNSt3__125__independent_bits_engineINS_23mersenne_twister_engineIyLm64ELm312ELm156ELm31ELy13043109905998158313ELm29ELy6148914691236517205ELm17ELy8202884508482404352ELm37ELy18444473444759240704ELm43ELy6364136223846793005EEEyEC2ERS2_m, symObjAddr: 0x9FF0, symBinAddr: 0x10000A950, symSize: 0x4F0 }
  - { offsetInCU: 0x233AD, offset: 0x233AD, size: 0x8, addend: 0x0, symName: __ZNSt3__125__independent_bits_engineINS_23mersenne_twister_engineIyLm64ELm312ELm156ELm31ELy13043109905998158313ELm29ELy6148914691236517205ELm17ELy8202884508482404352ELm37ELy18444473444759240704ELm43ELy6364136223846793005EEEyE6__evalENS_17integral_constantIbLb0EEE, symObjAddr: 0xA4E0, symBinAddr: 0x10000AE40, symSize: 0x90 }
  - { offsetInCU: 0x233DF, offset: 0x233DF, size: 0x8, addend: 0x0, symName: __ZNSt3__123mersenne_twister_engineIyLm64ELm312ELm156ELm31ELy13043109905998158313ELm29ELy6148914691236517205ELm17ELy8202884508482404352ELm37ELy18444473444759240704ELm43ELy6364136223846793005EEclEv, symObjAddr: 0xA570, symBinAddr: 0x10000AED0, symSize: 0x6E0 }
  - { offsetInCU: 0x23452, offset: 0x23452, size: 0x8, addend: 0x0, symName: __ZNSt3__123mersenne_twister_engineIyLm64ELm312ELm156ELm31ELy13043109905998158313ELm29ELy6148914691236517205ELm17ELy8202884508482404352ELm37ELy18444473444759240704ELm43ELy6364136223846793005EE8__rshiftB8ue170006ILm1EEENS_9enable_ifIXltT_L_ZNS1_3_DtEEEyE4typeEy, symObjAddr: 0xAC50, symBinAddr: 0x10000B5B0, symSize: 0x50 }
  - { offsetInCU: 0x2347F, offset: 0x2347F, size: 0x8, addend: 0x0, symName: __ZNSt3__123mersenne_twister_engineIyLm64ELm312ELm156ELm31ELy13043109905998158313ELm29ELy6148914691236517205ELm17ELy8202884508482404352ELm37ELy18444473444759240704ELm43ELy6364136223846793005EE8__rshiftB8ue170006ILm29EEENS_9enable_ifIXltT_L_ZNS1_3_DtEEEyE4typeEy, symObjAddr: 0xACA0, symBinAddr: 0x10000B600, symSize: 0x50 }
  - { offsetInCU: 0x234AC, offset: 0x234AC, size: 0x8, addend: 0x0, symName: __ZNSt3__123mersenne_twister_engineIyLm64ELm312ELm156ELm31ELy13043109905998158313ELm29ELy6148914691236517205ELm17ELy8202884508482404352ELm37ELy18444473444759240704ELm43ELy6364136223846793005EE8__lshiftB8ue170006ILm17EEENS_9enable_ifIXltT_Lm64EEyE4typeEy, symObjAddr: 0xACF0, symBinAddr: 0x10000B650, symSize: 0x50 }
  - { offsetInCU: 0x234D9, offset: 0x234D9, size: 0x8, addend: 0x0, symName: __ZNSt3__123mersenne_twister_engineIyLm64ELm312ELm156ELm31ELy13043109905998158313ELm29ELy6148914691236517205ELm17ELy8202884508482404352ELm37ELy18444473444759240704ELm43ELy6364136223846793005EE8__lshiftB8ue170006ILm37EEENS_9enable_ifIXltT_Lm64EEyE4typeEy, symObjAddr: 0xAD40, symBinAddr: 0x10000B6A0, symSize: 0x50 }
  - { offsetInCU: 0x23506, offset: 0x23506, size: 0x8, addend: 0x0, symName: __ZNSt3__123mersenne_twister_engineIyLm64ELm312ELm156ELm31ELy13043109905998158313ELm29ELy6148914691236517205ELm17ELy8202884508482404352ELm37ELy18444473444759240704ELm43ELy6364136223846793005EE8__rshiftB8ue170006ILm43EEENS_9enable_ifIXltT_L_ZNS1_3_DtEEEyE4typeEy, symObjAddr: 0xAD90, symBinAddr: 0x10000B6F0, symSize: 0x50 }
  - { offsetInCU: 0x23533, offset: 0x23533, size: 0x8, addend: 0x0, symName: __ZNSt3__123__libcpp_numeric_limitsIyLb1EE3maxB8ue170006Ev, symObjAddr: 0xAE30, symBinAddr: 0x10000B790, symSize: 0x20 }
  - { offsetInCU: 0x23547, offset: 0x23547, size: 0x8, addend: 0x0, symName: __ZNSt3__15arrayINS0_IyLm2EEELm2EEixB8ue170006Em, symObjAddr: 0xAE50, symBinAddr: 0x10000B7B0, symSize: 0x110 }
  - { offsetInCU: 0x2357B, offset: 0x2357B, size: 0x8, addend: 0x0, symName: __ZNSt3__15arrayIyLm2EEixB8ue170006Em, symObjAddr: 0xAF60, symBinAddr: 0x10000B8C0, symSize: 0x100 }
  - { offsetInCU: 0x235AF, offset: 0x235AF, size: 0x8, addend: 0x0, symName: __ZNSt3__15arrayIyLm8EEixB8ue170006Em, symObjAddr: 0xB060, symBinAddr: 0x10000B9C0, symSize: 0x100 }
  - { offsetInCU: 0x235E3, offset: 0x235E3, size: 0x8, addend: 0x0, symName: __ZNSt3__113unordered_mapIy13zobrist_valueNS_4hashIyEENS_8equal_toIyEENS_9allocatorINS_4pairIKyS1_EEEEED2B8ue170006Ev, symObjAddr: 0xB160, symBinAddr: 0x10000BAC0, symSize: 0x50 }
  - { offsetInCU: 0x2360D, offset: 0x2360D, size: 0x8, addend: 0x0, symName: __ZNSt3__112__hash_tableINS_17__hash_value_typeIy13zobrist_valueEENS_22__unordered_map_hasherIyS3_NS_4hashIyEENS_8equal_toIyEELb1EEENS_21__unordered_map_equalIyS3_S8_S6_Lb1EEENS_9allocatorIS3_EEED1Ev, symObjAddr: 0xB1B0, symBinAddr: 0x10000BB10, symSize: 0x50 }
  - { offsetInCU: 0x23639, offset: 0x23639, size: 0x8, addend: 0x0, symName: __ZNSt3__112__hash_tableINS_17__hash_value_typeIy13zobrist_valueEENS_22__unordered_map_hasherIyS3_NS_4hashIyEENS_8equal_toIyEELb1EEENS_21__unordered_map_equalIyS3_S8_S6_Lb1EEENS_9allocatorIS3_EEED2Ev, symObjAddr: 0xB200, symBinAddr: 0x10000BB60, symSize: 0x110 }
  - { offsetInCU: 0x23665, offset: 0x23665, size: 0x8, addend: 0x0, symName: __ZNSt3__112__hash_tableINS_17__hash_value_typeIy13zobrist_valueEENS_22__unordered_map_hasherIyS3_NS_4hashIyEENS_8equal_toIyEELb1EEENS_21__unordered_map_equalIyS3_S8_S6_Lb1EEENS_9allocatorIS3_EEE17__deallocate_nodeEPNS_16__hash_node_baseIPNS_11__hash_nodeIS3_PvEEEE, symObjAddr: 0xB310, symBinAddr: 0x10000BC70, symSize: 0x230 }
  - { offsetInCU: 0x236CF, offset: 0x236CF, size: 0x8, addend: 0x0, symName: __ZNSt3__117__compressed_pairINS_16__hash_node_baseIPNS_11__hash_nodeINS_17__hash_value_typeIy13zobrist_valueEEPvEEEENS_9allocatorIS7_EEE5firstB8ue170006Ev, symObjAddr: 0xB540, symBinAddr: 0x10000BEA0, symSize: 0xE0 }
  - { offsetInCU: 0x236F5, offset: 0x236F5, size: 0x8, addend: 0x0, symName: __ZNSt3__110unique_ptrIA_PNS_16__hash_node_baseIPNS_11__hash_nodeINS_17__hash_value_typeIy13zobrist_valueEEPvEEEENS_25__bucket_list_deallocatorINS_9allocatorISA_EEEEED1B8ue170006Ev, symObjAddr: 0xB620, symBinAddr: 0x10000BF80, symSize: 0x50 }
  - { offsetInCU: 0x2371F, offset: 0x2371F, size: 0x8, addend: 0x0, symName: __ZNSt3__112__hash_tableINS_17__hash_value_typeIy13zobrist_valueEENS_22__unordered_map_hasherIyS3_NS_4hashIyEENS_8equal_toIyEELb1EEENS_21__unordered_map_equalIyS3_S8_S6_Lb1EEENS_9allocatorIS3_EEE12__node_allocB8ue170006Ev, symObjAddr: 0xB670, symBinAddr: 0x10000BFD0, symSize: 0xB0 }
  - { offsetInCU: 0x23745, offset: 0x23745, size: 0x8, addend: 0x0, symName: __ZNSt3__116__hash_node_baseIPNS_11__hash_nodeINS_17__hash_value_typeIy13zobrist_valueEEPvEEE8__upcastB8ue170006Ev, symObjAddr: 0xB720, symBinAddr: 0x10000C080, symSize: 0xC0 }
  - { offsetInCU: 0x2376B, offset: 0x2376B, size: 0x8, addend: 0x0, symName: __ZNSt3__116allocator_traitsINS_9allocatorINS_11__hash_nodeINS_17__hash_value_typeIy13zobrist_valueEEPvEEEEE7destroyB8ue170006INS_4pairIKyS4_EEvvEEvRS8_PT_, symObjAddr: 0xB7E0, symBinAddr: 0x10000C140, symSize: 0x30 }
  - { offsetInCU: 0x237A6, offset: 0x237A6, size: 0x8, addend: 0x0, symName: __ZNSt3__122__hash_key_value_typesINS_17__hash_value_typeIy13zobrist_valueEEE9__get_ptrB8ue170006ERS3_, symObjAddr: 0xB810, symBinAddr: 0x10000C170, symSize: 0x50 }
  - { offsetInCU: 0x237C9, offset: 0x237C9, size: 0x8, addend: 0x0, symName: __ZNSt3__116allocator_traitsINS_9allocatorINS_11__hash_nodeINS_17__hash_value_typeIy13zobrist_valueEEPvEEEEE10deallocateB8ue170006ERS8_PS7_m, symObjAddr: 0xB860, symBinAddr: 0x10000C1C0, symSize: 0x40 }
  - { offsetInCU: 0x2380B, offset: 0x2380B, size: 0x8, addend: 0x0, symName: __ZNSt3__117__compressed_pairINS_16__hash_node_baseIPNS_11__hash_nodeINS_17__hash_value_typeIy13zobrist_valueEEPvEEEENS_9allocatorIS7_EEE6secondB8ue170006Ev, symObjAddr: 0xB8A0, symBinAddr: 0x10000C200, symSize: 0xD0 }
  - { offsetInCU: 0x23831, offset: 0x23831, size: 0x8, addend: 0x0, symName: __ZNSt3__122__compressed_pair_elemINS_9allocatorINS_11__hash_nodeINS_17__hash_value_typeIy13zobrist_valueEEPvEEEELi1ELb1EE5__getB8ue170006Ev, symObjAddr: 0xB970, symBinAddr: 0x10000C2D0, symSize: 0x60 }
  - { offsetInCU: 0x23857, offset: 0x23857, size: 0x8, addend: 0x0, symName: __ZNSt3__114pointer_traitsIPNS_16__hash_node_baseIPNS_11__hash_nodeINS_17__hash_value_typeIy13zobrist_valueEEPvEEEEE10pointer_toB8ue170006ERS9_, symObjAddr: 0xB9D0, symBinAddr: 0x10000C330, symSize: 0x20 }
  - { offsetInCU: 0x2387A, offset: 0x2387A, size: 0x8, addend: 0x0, symName: __ZNSt3__117__hash_value_typeIy13zobrist_valueE11__get_valueB8ue170006Ev, symObjAddr: 0xBA40, symBinAddr: 0x10000C3A0, symSize: 0x90 }
  - { offsetInCU: 0x238A0, offset: 0x238A0, size: 0x8, addend: 0x0, symName: __ZNSt3__19allocatorINS_11__hash_nodeINS_17__hash_value_typeIy13zobrist_valueEEPvEEE10deallocateB8ue170006EPS6_m, symObjAddr: 0xBB20, symBinAddr: 0x10000C480, symSize: 0x60 }
  - { offsetInCU: 0x238E2, offset: 0x238E2, size: 0x8, addend: 0x0, symName: __ZNSt3__122__compressed_pair_elemINS_16__hash_node_baseIPNS_11__hash_nodeINS_17__hash_value_typeIy13zobrist_valueEEPvEEEELi0ELb0EE5__getB8ue170006Ev, symObjAddr: 0xBCD0, symBinAddr: 0x10000C630, symSize: 0x80 }
  - { offsetInCU: 0x23908, offset: 0x23908, size: 0x8, addend: 0x0, symName: __ZNSt3__110unique_ptrIA_PNS_16__hash_node_baseIPNS_11__hash_nodeINS_17__hash_value_typeIy13zobrist_valueEEPvEEEENS_25__bucket_list_deallocatorINS_9allocatorISA_EEEEED2B8ue170006Ev, symObjAddr: 0xBD50, symBinAddr: 0x10000C6B0, symSize: 0x60 }
  - { offsetInCU: 0x23932, offset: 0x23932, size: 0x8, addend: 0x0, symName: __ZNSt3__110unique_ptrIA_PNS_16__hash_node_baseIPNS_11__hash_nodeINS_17__hash_value_typeIy13zobrist_valueEEPvEEEENS_25__bucket_list_deallocatorINS_9allocatorISA_EEEEE5resetB8ue170006EDn, symObjAddr: 0xBDB0, symBinAddr: 0x10000C710, symSize: 0x1C0 }
  - { offsetInCU: 0x23973, offset: 0x23973, size: 0x8, addend: 0x0, symName: __ZNSt3__117__compressed_pairIPPNS_16__hash_node_baseIPNS_11__hash_nodeINS_17__hash_value_typeIy13zobrist_valueEEPvEEEENS_25__bucket_list_deallocatorINS_9allocatorISA_EEEEE5firstB8ue170006Ev, symObjAddr: 0xBF70, symBinAddr: 0x10000C8D0, symSize: 0xE0 }
  - { offsetInCU: 0x23999, offset: 0x23999, size: 0x8, addend: 0x0, symName: __ZNSt3__117__compressed_pairIPPNS_16__hash_node_baseIPNS_11__hash_nodeINS_17__hash_value_typeIy13zobrist_valueEEPvEEEENS_25__bucket_list_deallocatorINS_9allocatorISA_EEEEE6secondB8ue170006Ev, symObjAddr: 0xC050, symBinAddr: 0x10000C9B0, symSize: 0xE0 }
  - { offsetInCU: 0x239BF, offset: 0x239BF, size: 0x8, addend: 0x0, symName: __ZNSt3__125__bucket_list_deallocatorINS_9allocatorIPNS_16__hash_node_baseIPNS_11__hash_nodeINS_17__hash_value_typeIy13zobrist_valueEEPvEEEEEEEclB8ue170006EPSB_, symObjAddr: 0xC130, symBinAddr: 0x10000CA90, symSize: 0xD0 }
  - { offsetInCU: 0x239F4, offset: 0x239F4, size: 0x8, addend: 0x0, symName: __ZNSt3__122__compressed_pair_elemIPPNS_16__hash_node_baseIPNS_11__hash_nodeINS_17__hash_value_typeIy13zobrist_valueEEPvEEEELi0ELb0EE5__getB8ue170006Ev, symObjAddr: 0xC200, symBinAddr: 0x10000CB60, symSize: 0x80 }
  - { offsetInCU: 0x23A1A, offset: 0x23A1A, size: 0x8, addend: 0x0, symName: __ZNSt3__122__compressed_pair_elemINS_25__bucket_list_deallocatorINS_9allocatorIPNS_16__hash_node_baseIPNS_11__hash_nodeINS_17__hash_value_typeIy13zobrist_valueEEPvEEEEEEEELi1ELb0EE5__getB8ue170006Ev, symObjAddr: 0xC280, symBinAddr: 0x10000CBE0, symSize: 0x80 }
  - { offsetInCU: 0x23A40, offset: 0x23A40, size: 0x8, addend: 0x0, symName: __ZNSt3__116allocator_traitsINS_9allocatorIPNS_16__hash_node_baseIPNS_11__hash_nodeINS_17__hash_value_typeIy13zobrist_valueEEPvEEEEEEE10deallocateB8ue170006ERSC_PSB_m, symObjAddr: 0xC300, symBinAddr: 0x10000CC60, symSize: 0x40 }
  - { offsetInCU: 0x23A82, offset: 0x23A82, size: 0x8, addend: 0x0, symName: __ZNSt3__125__bucket_list_deallocatorINS_9allocatorIPNS_16__hash_node_baseIPNS_11__hash_nodeINS_17__hash_value_typeIy13zobrist_valueEEPvEEEEEEE7__allocB8ue170006Ev, symObjAddr: 0xC340, symBinAddr: 0x10000CCA0, symSize: 0xB0 }
  - { offsetInCU: 0x23AA8, offset: 0x23AA8, size: 0x8, addend: 0x0, symName: __ZNSt3__125__bucket_list_deallocatorINS_9allocatorIPNS_16__hash_node_baseIPNS_11__hash_nodeINS_17__hash_value_typeIy13zobrist_valueEEPvEEEEEEE4sizeB8ue170006Ev, symObjAddr: 0xC3F0, symBinAddr: 0x10000CD50, symSize: 0xC0 }
  - { offsetInCU: 0x23ACE, offset: 0x23ACE, size: 0x8, addend: 0x0, symName: __ZNSt3__19allocatorIPNS_16__hash_node_baseIPNS_11__hash_nodeINS_17__hash_value_typeIy13zobrist_valueEEPvEEEEE10deallocateB8ue170006EPSA_m, symObjAddr: 0xC4B0, symBinAddr: 0x10000CE10, symSize: 0x60 }
  - { offsetInCU: 0x23B10, offset: 0x23B10, size: 0x8, addend: 0x0, symName: __ZNSt3__117__compressed_pairImNS_9allocatorIPNS_16__hash_node_baseIPNS_11__hash_nodeINS_17__hash_value_typeIy13zobrist_valueEEPvEEEEEEE6secondB8ue170006Ev, symObjAddr: 0xC510, symBinAddr: 0x10000CE70, symSize: 0xD0 }
  - { offsetInCU: 0x23B36, offset: 0x23B36, size: 0x8, addend: 0x0, symName: __ZNSt3__122__compressed_pair_elemINS_9allocatorIPNS_16__hash_node_baseIPNS_11__hash_nodeINS_17__hash_value_typeIy13zobrist_valueEEPvEEEEEELi1ELb1EE5__getB8ue170006Ev, symObjAddr: 0xC5E0, symBinAddr: 0x10000CF40, symSize: 0x60 }
  - { offsetInCU: 0x23B5C, offset: 0x23B5C, size: 0x8, addend: 0x0, symName: __ZNSt3__117__compressed_pairImNS_9allocatorIPNS_16__hash_node_baseIPNS_11__hash_nodeINS_17__hash_value_typeIy13zobrist_valueEEPvEEEEEEE5firstB8ue170006Ev, symObjAddr: 0xC640, symBinAddr: 0x10000CFA0, symSize: 0xE0 }
  - { offsetInCU: 0x23B82, offset: 0x23B82, size: 0x8, addend: 0x0, symName: __ZNSt3__122__compressed_pair_elemImLi0ELb0EE5__getB8ue170006Ev, symObjAddr: 0xC720, symBinAddr: 0x10000D080, symSize: 0x80 }
  - { offsetInCU: 0x23BA8, offset: 0x23BA8, size: 0x8, addend: 0x0, symName: __ZN18TranspositionTableD2Ev, symObjAddr: 0xC7A0, symBinAddr: 0x10000D100, symSize: 0x60 }
  - { offsetInCU: 0x23BD4, offset: 0x23BD4, size: 0x8, addend: 0x0, symName: __ZN8PositionC2Ev, symObjAddr: 0xC800, symBinAddr: 0x10000D160, symSize: 0x60 }
  - { offsetInCU: 0x23C00, offset: 0x23C00, size: 0x8, addend: 0x0, symName: __ZN11PieceChecksC2Ev, symObjAddr: 0xC860, symBinAddr: 0x10000D1C0, symSize: 0x60 }
  - { offsetInCU: 0x23C2C, offset: 0x23C2C, size: 0x8, addend: 0x0, symName: __ZN10PieceMovesC2Ev, symObjAddr: 0xC8C0, symBinAddr: 0x10000D220, symSize: 0x80 }
  - { offsetInCU: 0x23C58, offset: 0x23C58, size: 0x8, addend: 0x0, symName: __ZNSt3__15arrayINS0_INS_8optionalI5pieceEELm8EEELm8EEC1Ev, symObjAddr: 0xC940, symBinAddr: 0x10000D2A0, symSize: 0x40 }
  - { offsetInCU: 0x23C84, offset: 0x23C84, size: 0x8, addend: 0x0, symName: __ZNSt3__18optionalIaEC1B8ue170006Ev, symObjAddr: 0xC980, symBinAddr: 0x10000D2E0, symSize: 0x40 }
  - { offsetInCU: 0x23CAE, offset: 0x23CAE, size: 0x8, addend: 0x0, symName: __ZNSt3__15arrayINS0_INS_8optionalI5pieceEELm8EEELm8EEC2Ev, symObjAddr: 0xC9C0, symBinAddr: 0x10000D320, symSize: 0x70 }
  - { offsetInCU: 0x23CDA, offset: 0x23CDA, size: 0x8, addend: 0x0, symName: __ZNSt3__15arrayINS_8optionalI5pieceEELm8EEC1Ev, symObjAddr: 0xCA30, symBinAddr: 0x10000D390, symSize: 0x40 }
  - { offsetInCU: 0x23D06, offset: 0x23D06, size: 0x8, addend: 0x0, symName: __ZNSt3__15arrayINS_8optionalI5pieceEELm8EEC2Ev, symObjAddr: 0xCA70, symBinAddr: 0x10000D3D0, symSize: 0x70 }
  - { offsetInCU: 0x23D32, offset: 0x23D32, size: 0x8, addend: 0x0, symName: __ZNSt3__18optionalIaEC2B8ue170006Ev, symObjAddr: 0xCAE0, symBinAddr: 0x10000D440, symSize: 0x60 }
  - { offsetInCU: 0x23D62, offset: 0x23D62, size: 0x8, addend: 0x0, symName: __ZNSt3__127__optional_move_assign_baseIaLb1EEC2Ev, symObjAddr: 0xCB40, symBinAddr: 0x10000D4A0, symSize: 0x60 }
  - { offsetInCU: 0x23D95, offset: 0x23D95, size: 0x8, addend: 0x0, symName: __ZNSt3__127__optional_copy_assign_baseIaLb1EEC2Ev, symObjAddr: 0xCBA0, symBinAddr: 0x10000D500, symSize: 0x60 }
  - { offsetInCU: 0x23DC8, offset: 0x23DC8, size: 0x8, addend: 0x0, symName: __ZNSt3__120__optional_move_baseIaLb1EEC2Ev, symObjAddr: 0xCC00, symBinAddr: 0x10000D560, symSize: 0x60 }
  - { offsetInCU: 0x23DFB, offset: 0x23DFB, size: 0x8, addend: 0x0, symName: __ZNSt3__120__optional_copy_baseIaLb1EEC2Ev, symObjAddr: 0xCC60, symBinAddr: 0x10000D5C0, symSize: 0x60 }
  - { offsetInCU: 0x23E28, offset: 0x23E28, size: 0x8, addend: 0x0, symName: __ZNSt3__123__optional_storage_baseIaLb0EEC2Ev, symObjAddr: 0xCCC0, symBinAddr: 0x10000D620, symSize: 0x60 }
  - { offsetInCU: 0x23E55, offset: 0x23E55, size: 0x8, addend: 0x0, symName: __ZNSt3__124__optional_destruct_baseIaLb1EEC2B8ue170006Ev, symObjAddr: 0xCD20, symBinAddr: 0x10000D680, symSize: 0x40 }
  - { offsetInCU: 0x23E7F, offset: 0x23E7F, size: 0x8, addend: 0x0, symName: __ZNKSt3__117basic_string_viewIcNS_11char_traitsIcEEE6cbeginB8ue170006Ev, symObjAddr: 0xCD60, symBinAddr: 0x10000D6C0, symSize: 0x50 }
  - { offsetInCU: 0x23EA5, offset: 0x23EA5, size: 0x8, addend: 0x0, symName: __ZNKSt3__117basic_string_viewIcNS_11char_traitsIcEEE4cendB8ue170006Ev, symObjAddr: 0xCDB0, symBinAddr: 0x10000D710, symSize: 0xB0 }
  - { offsetInCU: 0x23ECB, offset: 0x23ECB, size: 0x8, addend: 0x0, symName: __ZNSt3__112basic_stringIcNS_11char_traitsIcEENS_9allocatorIcEEE4dataB8ue170006Ev, symObjAddr: 0xCE60, symBinAddr: 0x10000D7C0, symSize: 0x60 }
  - { offsetInCU: 0x23EF1, offset: 0x23EF1, size: 0x8, addend: 0x0, symName: __ZNSt3__112basic_stringIcNS_11char_traitsIcEENS_9allocatorIcEEE13__get_pointerB8ue170006Ev, symObjAddr: 0xCEE0, symBinAddr: 0x10000D840, symSize: 0x80 }
  - { offsetInCU: 0x23F17, offset: 0x23F17, size: 0x8, addend: 0x0, symName: __ZNKSt3__112basic_stringIcNS_11char_traitsIcEENS_9allocatorIcEEE9__is_longB8ue170006Ev, symObjAddr: 0xCF60, symBinAddr: 0x10000D8C0, symSize: 0x160 }
  - { offsetInCU: 0x23F3D, offset: 0x23F3D, size: 0x8, addend: 0x0, symName: __ZNSt3__112basic_stringIcNS_11char_traitsIcEENS_9allocatorIcEEE18__get_long_pointerB8ue170006Ev, symObjAddr: 0xD0C0, symBinAddr: 0x10000DA20, symSize: 0x160 }
  - { offsetInCU: 0x23F63, offset: 0x23F63, size: 0x8, addend: 0x0, symName: __ZNSt3__112basic_stringIcNS_11char_traitsIcEENS_9allocatorIcEEE19__get_short_pointerB8ue170006Ev, symObjAddr: 0xD220, symBinAddr: 0x10000DB80, symSize: 0x160 }
  - { offsetInCU: 0x23F89, offset: 0x23F89, size: 0x8, addend: 0x0, symName: __ZNKSt3__117__compressed_pairINS_12basic_stringIcNS_11char_traitsIcEENS_9allocatorIcEEE5__repES5_E5firstB8ue170006Ev, symObjAddr: 0xD380, symBinAddr: 0x10000DCE0, symSize: 0xE0 }
  - { offsetInCU: 0x23FAF, offset: 0x23FAF, size: 0x8, addend: 0x0, symName: __ZNKSt3__122__compressed_pair_elemINS_12basic_stringIcNS_11char_traitsIcEENS_9allocatorIcEEE5__repELi0ELb0EE5__getB8ue170006Ev, symObjAddr: 0xD460, symBinAddr: 0x10000DDC0, symSize: 0x80 }
  - { offsetInCU: 0x23FD5, offset: 0x23FD5, size: 0x8, addend: 0x0, symName: __ZNSt3__117__compressed_pairINS_12basic_stringIcNS_11char_traitsIcEENS_9allocatorIcEEE5__repES5_E5firstB8ue170006Ev, symObjAddr: 0xD4E0, symBinAddr: 0x10000DE40, symSize: 0xE0 }
  - { offsetInCU: 0x23FFB, offset: 0x23FFB, size: 0x8, addend: 0x0, symName: __ZNSt3__122__compressed_pair_elemINS_12basic_stringIcNS_11char_traitsIcEENS_9allocatorIcEEE5__repELi0ELb0EE5__getB8ue170006Ev, symObjAddr: 0xD5C0, symBinAddr: 0x10000DF20, symSize: 0x80 }
  - { offsetInCU: 0x24021, offset: 0x24021, size: 0x8, addend: 0x0, symName: __ZNSt3__114pointer_traitsIPcE10pointer_toB8ue170006ERc, symObjAddr: 0xD640, symBinAddr: 0x10000DFA0, symSize: 0x20 }
  - { offsetInCU: 0x24044, offset: 0x24044, size: 0x8, addend: 0x0, symName: __ZNSt3__112basic_stringIcNS_11char_traitsIcEENS_9allocatorIcEEEC2B8ue170006ILi0EEEPKc, symObjAddr: 0xD660, symBinAddr: 0x10000DFC0, symSize: 0x80 }
  - { offsetInCU: 0x24083, offset: 0x24083, size: 0x8, addend: 0x0, symName: __ZNSt3__117__compressed_pairINS_12basic_stringIcNS_11char_traitsIcEENS_9allocatorIcEEE5__repES5_EC1B8ue170006INS_18__default_init_tagESA_EEOT_OT0_, symObjAddr: 0xD6E0, symBinAddr: 0x10000E040, symSize: 0x60 }
  - { offsetInCU: 0x240DB, offset: 0x240DB, size: 0x8, addend: 0x0, symName: __ZNSt3__111char_traitsIcE6lengthB8ue170006EPKc, symObjAddr: 0xD740, symBinAddr: 0x10000E0A0, symSize: 0x40 }
  - { offsetInCU: 0x240FE, offset: 0x240FE, size: 0x8, addend: 0x0, symName: __ZNSt3__117__compressed_pairINS_12basic_stringIcNS_11char_traitsIcEENS_9allocatorIcEEE5__repES5_EC2B8ue170006INS_18__default_init_tagESA_EEOT_OT0_, symObjAddr: 0xD780, symBinAddr: 0x10000E0E0, symSize: 0xB0 }
  - { offsetInCU: 0x24156, offset: 0x24156, size: 0x8, addend: 0x0, symName: __ZNSt3__122__compressed_pair_elemINS_12basic_stringIcNS_11char_traitsIcEENS_9allocatorIcEEE5__repELi0ELb0EEC2B8ue170006ENS_18__default_init_tagE, symObjAddr: 0xD830, symBinAddr: 0x10000E190, symSize: 0x50 }
  - { offsetInCU: 0x2418B, offset: 0x2418B, size: 0x8, addend: 0x0, symName: __ZNSt3__122__compressed_pair_elemINS_9allocatorIcEELi1ELb1EEC2B8ue170006ENS_18__default_init_tagE, symObjAddr: 0xD880, symBinAddr: 0x10000E1E0, symSize: 0x60 }
  - { offsetInCU: 0x241C0, offset: 0x241C0, size: 0x8, addend: 0x0, symName: __ZNSt3__19allocatorIcEC2B8ue170006Ev, symObjAddr: 0xD8E0, symBinAddr: 0x10000E240, symSize: 0x60 }
  - { offsetInCU: 0x241EA, offset: 0x241EA, size: 0x8, addend: 0x0, symName: __ZNSt3__116__non_trivial_ifILb1ENS_9allocatorIcEEEC2B8ue170006Ev, symObjAddr: 0xD940, symBinAddr: 0x10000E2A0, symSize: 0x40 }
  - { offsetInCU: 0x24214, offset: 0x24214, size: 0x8, addend: 0x0, symName: __ZNKSt3__123__optional_storage_baseIaLb0EE9has_valueB8ue170006Ev, symObjAddr: 0xD9B0, symBinAddr: 0x10000E310, symSize: 0x70 }
  - { offsetInCU: 0x2423A, offset: 0x2423A, size: 0x8, addend: 0x0, symName: __ZNRSt3__123__optional_storage_baseIaLb0EE5__getB8ue170006Ev, symObjAddr: 0xDA20, symBinAddr: 0x10000E380, symSize: 0x60 }
  - { offsetInCU: 0x24260, offset: 0x24260, size: 0x8, addend: 0x0, symName: __ZNSt3__123__optional_storage_baseIaLb0EE11__constructB8ue170006IJiEEEvDpOT_, symObjAddr: 0xDA80, symBinAddr: 0x10000E3E0, symSize: 0x90 }
  - { offsetInCU: 0x242A5, offset: 0x242A5, size: 0x8, addend: 0x0, symName: __Z9__isctypeim, symObjAddr: 0xDBC0, symBinAddr: 0x10000E520, symSize: 0x150 }
  - { offsetInCU: 0x242E0, offset: 0x242E0, size: 0x8, addend: 0x0, symName: __ZNSt3__18optionalI5pieceEC2B8ue170006Ev, symObjAddr: 0xDD10, symBinAddr: 0x10000E670, symSize: 0x60 }
  - { offsetInCU: 0x24310, offset: 0x24310, size: 0x8, addend: 0x0, symName: __ZNSt3__127__optional_move_assign_baseI5pieceLb1EEC2Ev, symObjAddr: 0xDD70, symBinAddr: 0x10000E6D0, symSize: 0x60 }
  - { offsetInCU: 0x24343, offset: 0x24343, size: 0x8, addend: 0x0, symName: __ZNSt3__127__optional_copy_assign_baseI5pieceLb1EEC2Ev, symObjAddr: 0xDDD0, symBinAddr: 0x10000E730, symSize: 0x60 }
  - { offsetInCU: 0x24376, offset: 0x24376, size: 0x8, addend: 0x0, symName: __ZNSt3__120__optional_move_baseI5pieceLb1EEC2Ev, symObjAddr: 0xDE30, symBinAddr: 0x10000E790, symSize: 0x60 }
  - { offsetInCU: 0x243A9, offset: 0x243A9, size: 0x8, addend: 0x0, symName: __ZNSt3__120__optional_copy_baseI5pieceLb1EEC2Ev, symObjAddr: 0xDE90, symBinAddr: 0x10000E7F0, symSize: 0x60 }
  - { offsetInCU: 0x243D6, offset: 0x243D6, size: 0x8, addend: 0x0, symName: __ZNSt3__123__optional_storage_baseI5pieceLb0EEC2Ev, symObjAddr: 0xDEF0, symBinAddr: 0x10000E850, symSize: 0x60 }
  - { offsetInCU: 0x24403, offset: 0x24403, size: 0x8, addend: 0x0, symName: __ZNSt3__124__optional_destruct_baseI5pieceLb1EEC2B8ue170006Ev, symObjAddr: 0xDF50, symBinAddr: 0x10000E8B0, symSize: 0x40 }
  - { offsetInCU: 0x2442C, offset: 0x2442C, size: 0x8, addend: 0x0, symName: __Z8__istypeim, symObjAddr: 0xDF90, symBinAddr: 0x10000E8F0, symSize: 0x130 }
  - { offsetInCU: 0x24466, offset: 0x24466, size: 0x8, addend: 0x0, symName: __Z7isasciii, symObjAddr: 0xE0C0, symBinAddr: 0x10000EA20, symSize: 0x30 }
  - { offsetInCU: 0x24493, offset: 0x24493, size: 0x8, addend: 0x0, symName: __ZNRSt3__123__optional_storage_baseI5pieceLb0EE5__getB8ue170006Ev, symObjAddr: 0xE0F0, symBinAddr: 0x10000EA50, symSize: 0x60 }
  - { offsetInCU: 0x244B9, offset: 0x244B9, size: 0x8, addend: 0x0, symName: __ZNSt3__123__optional_storage_baseI5pieceLb0EE11__constructB8ue170006IJS1_EEEvDpOT_, symObjAddr: 0xE150, symBinAddr: 0x10000EAB0, symSize: 0x70 }
  - { offsetInCU: 0x244FF, offset: 0x244FF, size: 0x8, addend: 0x0, symName: __ZNSt3__16vectorI4moveNS_9allocatorIS1_EEEC1B8ue170006Ev, symObjAddr: 0xE240, symBinAddr: 0x10000EBA0, symSize: 0x50 }
  - { offsetInCU: 0x24529, offset: 0x24529, size: 0x8, addend: 0x0, symName: __ZNSt3__16vectorI4moveNS_9allocatorIS1_EEE7reserveEm, symObjAddr: 0xE290, symBinAddr: 0x10000EBF0, symSize: 0x190 }
  - { offsetInCU: 0x24584, offset: 0x24584, size: 0x8, addend: 0x0, symName: __ZNK8Position15search_at_depthERNSt3__16vectorI4moveNS0_9allocatorIS2_EEEEiNS0_6chrono10time_pointINS7_12steady_clockENS7_8durationIxNS0_5ratioILl1ELl1000000000EEEEEEE, symObjAddr: 0xE420, symBinAddr: 0x10000ED80, symSize: 0x9B0 }
  - { offsetInCU: 0x24692, offset: 0x24692, size: 0x8, addend: 0x0, symName: __ZNSt3__16vectorI4moveNS_9allocatorIS1_EEEixB8ue170006Em, symObjAddr: 0xEDD0, symBinAddr: 0x10000F730, symSize: 0xF0 }
  - { offsetInCU: 0x246C9, offset: 0x246C9, size: 0x8, addend: 0x0, symName: __ZNKSt3__16vectorI4moveNS_9allocatorIS1_EEE4sizeB8ue170006Ev, symObjAddr: 0xEEC0, symBinAddr: 0x10000F820, symSize: 0x60 }
  - { offsetInCU: 0x246EF, offset: 0x246EF, size: 0x8, addend: 0x0, symName: __ZNSt3__16vectorI4moveNS_9allocatorIS1_EEED1B8ue170006Ev, symObjAddr: 0xEF20, symBinAddr: 0x10000F880, symSize: 0x50 }
  - { offsetInCU: 0x24719, offset: 0x24719, size: 0x8, addend: 0x0, symName: __ZNSt3__16vectorI4moveNS_9allocatorIS1_EEEC2B8ue170006Ev, symObjAddr: 0xEF70, symBinAddr: 0x10000F8D0, symSize: 0x80 }
  - { offsetInCU: 0x24749, offset: 0x24749, size: 0x8, addend: 0x0, symName: __ZNSt3__117__compressed_pairIP4moveNS_9allocatorIS1_EEEC1B8ue170006IDnNS_18__default_init_tagEEEOT_OT0_, symObjAddr: 0xEFF0, symBinAddr: 0x10000F950, symSize: 0x60 }
  - { offsetInCU: 0x247A1, offset: 0x247A1, size: 0x8, addend: 0x0, symName: __ZNSt3__117__compressed_pairIP4moveNS_9allocatorIS1_EEEC2B8ue170006IDnNS_18__default_init_tagEEEOT_OT0_, symObjAddr: 0xF050, symBinAddr: 0x10000F9B0, symSize: 0xF0 }
  - { offsetInCU: 0x247F9, offset: 0x247F9, size: 0x8, addend: 0x0, symName: __ZNSt3__122__compressed_pair_elemIP4moveLi0ELb0EEC2B8ue170006IDnvEEOT_, symObjAddr: 0xF140, symBinAddr: 0x10000FAA0, symSize: 0x60 }
  - { offsetInCU: 0x2483B, offset: 0x2483B, size: 0x8, addend: 0x0, symName: __ZNSt3__122__compressed_pair_elemINS_9allocatorI4moveEELi1ELb1EEC2B8ue170006ENS_18__default_init_tagE, symObjAddr: 0xF1A0, symBinAddr: 0x10000FB00, symSize: 0x60 }
  - { offsetInCU: 0x24870, offset: 0x24870, size: 0x8, addend: 0x0, symName: __ZNSt3__19allocatorI4moveEC2B8ue170006Ev, symObjAddr: 0xF200, symBinAddr: 0x10000FB60, symSize: 0x60 }
  - { offsetInCU: 0x2489A, offset: 0x2489A, size: 0x8, addend: 0x0, symName: __ZNSt3__116__non_trivial_ifILb1ENS_9allocatorI4moveEEEC2B8ue170006Ev, symObjAddr: 0xF260, symBinAddr: 0x10000FBC0, symSize: 0x40 }
  - { offsetInCU: 0x248C4, offset: 0x248C4, size: 0x8, addend: 0x0, symName: __ZNKSt3__16vectorI4moveNS_9allocatorIS1_EEE8capacityB8ue170006Ev, symObjAddr: 0xF2A0, symBinAddr: 0x10000FC00, symSize: 0xA0 }
  - { offsetInCU: 0x248EA, offset: 0x248EA, size: 0x8, addend: 0x0, symName: __ZNKSt3__16vectorI4moveNS_9allocatorIS1_EEE8max_sizeEv, symObjAddr: 0xF340, symBinAddr: 0x10000FCA0, symSize: 0xE0 }
  - { offsetInCU: 0x24912, offset: 0x24912, size: 0x8, addend: 0x0, symName: __ZNKSt3__16vectorI4moveNS_9allocatorIS1_EEE20__throw_length_errorB8ue170006Ev, symObjAddr: 0xF420, symBinAddr: 0x10000FD80, symSize: 0x70 }
  - { offsetInCU: 0x24938, offset: 0x24938, size: 0x8, addend: 0x0, symName: __ZNSt3__16vectorI4moveNS_9allocatorIS1_EEE7__allocB8ue170006Ev, symObjAddr: 0xF490, symBinAddr: 0x10000FDF0, symSize: 0xB0 }
  - { offsetInCU: 0x2495E, offset: 0x2495E, size: 0x8, addend: 0x0, symName: __ZNSt3__114__split_bufferI4moveRNS_9allocatorIS1_EEEC1EmmS4_, symObjAddr: 0xF540, symBinAddr: 0x10000FEA0, symSize: 0x70 }
  - { offsetInCU: 0x249B4, offset: 0x249B4, size: 0x8, addend: 0x0, symName: __ZNSt3__114__split_bufferI4moveRNS_9allocatorIS1_EEED1Ev, symObjAddr: 0xF960, symBinAddr: 0x1000102C0, symSize: 0x50 }
  - { offsetInCU: 0x249E0, offset: 0x249E0, size: 0x8, addend: 0x0, symName: __ZNKSt3__16vectorI4moveNS_9allocatorIS1_EEE9__end_capB8ue170006Ev, symObjAddr: 0xF9B0, symBinAddr: 0x100010310, symSize: 0xC0 }
  - { offsetInCU: 0x24A06, offset: 0x24A06, size: 0x8, addend: 0x0, symName: __ZNKSt3__117__compressed_pairIP4moveNS_9allocatorIS1_EEE5firstB8ue170006Ev, symObjAddr: 0xFA70, symBinAddr: 0x1000103D0, symSize: 0xE0 }
  - { offsetInCU: 0x24A2C, offset: 0x24A2C, size: 0x8, addend: 0x0, symName: __ZNKSt3__122__compressed_pair_elemIP4moveLi0ELb0EE5__getB8ue170006Ev, symObjAddr: 0xFB50, symBinAddr: 0x1000104B0, symSize: 0x80 }
  - { offsetInCU: 0x24A5D, offset: 0x24A5D, size: 0x8, addend: 0x0, symName: __ZNSt3__116allocator_traitsINS_9allocatorI4moveEEE8max_sizeB8ue170006IS3_vvEEmRKS3_, symObjAddr: 0xFCA0, symBinAddr: 0x100010600, symSize: 0x50 }
  - { offsetInCU: 0x24A89, offset: 0x24A89, size: 0x8, addend: 0x0, symName: __ZNKSt3__16vectorI4moveNS_9allocatorIS1_EEE7__allocB8ue170006Ev, symObjAddr: 0xFCF0, symBinAddr: 0x100010650, symSize: 0xB0 }
  - { offsetInCU: 0x24AAF, offset: 0x24AAF, size: 0x8, addend: 0x0, symName: __ZNSt3__114numeric_limitsIlE3maxB8ue170006Ev, symObjAddr: 0xFDA0, symBinAddr: 0x100010700, symSize: 0x20 }
  - { offsetInCU: 0x24ACE, offset: 0x24ACE, size: 0x8, addend: 0x0, symName: __ZNKSt3__16__lessIvvEclB8ue170006ImmEEbRKT_RKT0_, symObjAddr: 0xFEC0, symBinAddr: 0x100010820, symSize: 0x60 }
  - { offsetInCU: 0x24B22, offset: 0x24B22, size: 0x8, addend: 0x0, symName: __ZNSt3__114numeric_limitsImE3maxB8ue170006Ev, symObjAddr: 0xFF20, symBinAddr: 0x100010880, symSize: 0x20 }
  - { offsetInCU: 0x24B36, offset: 0x24B36, size: 0x8, addend: 0x0, symName: __ZNSt3__123__libcpp_numeric_limitsImLb1EE3maxB8ue170006Ev, symObjAddr: 0xFF40, symBinAddr: 0x1000108A0, symSize: 0x20 }
  - { offsetInCU: 0x24B4A, offset: 0x24B4A, size: 0x8, addend: 0x0, symName: __ZNKSt3__117__compressed_pairIP4moveNS_9allocatorIS1_EEE6secondB8ue170006Ev, symObjAddr: 0xFF60, symBinAddr: 0x1000108C0, symSize: 0xD0 }
  - { offsetInCU: 0x24B70, offset: 0x24B70, size: 0x8, addend: 0x0, symName: __ZNKSt3__122__compressed_pair_elemINS_9allocatorI4moveEELi1ELb1EE5__getB8ue170006Ev, symObjAddr: 0x10030, symBinAddr: 0x100010990, symSize: 0x60 }
  - { offsetInCU: 0x24B96, offset: 0x24B96, size: 0x8, addend: 0x0, symName: __ZNSt3__123__libcpp_numeric_limitsIlLb1EE3maxB8ue170006Ev, symObjAddr: 0x10090, symBinAddr: 0x1000109F0, symSize: 0x20 }
  - { offsetInCU: 0x24BAA, offset: 0x24BAA, size: 0x8, addend: 0x0, symName: __ZNSt12length_errorC1B8ue170006EPKc, symObjAddr: 0x10150, symBinAddr: 0x100010AB0, symSize: 0x60 }
  - { offsetInCU: 0x24BE2, offset: 0x24BE2, size: 0x8, addend: 0x0, symName: __ZNSt12length_errorC2B8ue170006EPKc, symObjAddr: 0x101B0, symBinAddr: 0x100010B10, symSize: 0xB0 }
  - { offsetInCU: 0x24C1A, offset: 0x24C1A, size: 0x8, addend: 0x0, symName: __ZNSt3__117__compressed_pairIP4moveNS_9allocatorIS1_EEE6secondB8ue170006Ev, symObjAddr: 0x10260, symBinAddr: 0x100010BC0, symSize: 0xD0 }
  - { offsetInCU: 0x24C40, offset: 0x24C40, size: 0x8, addend: 0x0, symName: __ZNSt3__122__compressed_pair_elemINS_9allocatorI4moveEELi1ELb1EE5__getB8ue170006Ev, symObjAddr: 0x10330, symBinAddr: 0x100010C90, symSize: 0x60 }
  - { offsetInCU: 0x24C66, offset: 0x24C66, size: 0x8, addend: 0x0, symName: __ZNSt3__114__split_bufferI4moveRNS_9allocatorIS1_EEEC2EmmS4_, symObjAddr: 0x10390, symBinAddr: 0x100010CF0, symSize: 0x270 }
  - { offsetInCU: 0x24CD9, offset: 0x24CD9, size: 0x8, addend: 0x0, symName: __ZNSt3__117__compressed_pairIP4moveRNS_9allocatorIS1_EEEC1B8ue170006IDnS5_EEOT_OT0_, symObjAddr: 0x10600, symBinAddr: 0x100010F60, symSize: 0x60 }
  - { offsetInCU: 0x24D31, offset: 0x24D31, size: 0x8, addend: 0x0, symName: __ZNSt3__114__split_bufferI4moveRNS_9allocatorIS1_EEE7__allocB8ue170006Ev, symObjAddr: 0x106C0, symBinAddr: 0x100011020, symSize: 0xB0 }
  - { offsetInCU: 0x24D57, offset: 0x24D57, size: 0x8, addend: 0x0, symName: __ZNSt3__114__split_bufferI4moveRNS_9allocatorIS1_EEE9__end_capB8ue170006Ev, symObjAddr: 0x10770, symBinAddr: 0x1000110D0, symSize: 0xC0 }
  - { offsetInCU: 0x24D7D, offset: 0x24D7D, size: 0x8, addend: 0x0, symName: __ZNSt3__117__compressed_pairIP4moveRNS_9allocatorIS1_EEEC2B8ue170006IDnS5_EEOT_OT0_, symObjAddr: 0x10830, symBinAddr: 0x100011190, symSize: 0x130 }
  - { offsetInCU: 0x24DD5, offset: 0x24DD5, size: 0x8, addend: 0x0, symName: __ZNSt3__122__compressed_pair_elemIRNS_9allocatorI4moveEELi1ELb0EEC2B8ue170006IS4_vEEOT_, symObjAddr: 0x10960, symBinAddr: 0x1000112C0, symSize: 0x80 }
  - { offsetInCU: 0x24E17, offset: 0x24E17, size: 0x8, addend: 0x0, symName: __ZNSt3__19allocatorI4moveE17allocate_at_leastB8ue170006Em, symObjAddr: 0x10A20, symBinAddr: 0x100011380, symSize: 0x60 }
  - { offsetInCU: 0x24E4B, offset: 0x24E4B, size: 0x8, addend: 0x0, symName: __ZNSt3__19allocatorI4moveE8allocateB8ue170006Em, symObjAddr: 0x10A80, symBinAddr: 0x1000113E0, symSize: 0xB0 }
  - { offsetInCU: 0x24E7F, offset: 0x24E7F, size: 0x8, addend: 0x0, symName: __ZNSt3__117__compressed_pairIP4moveRNS_9allocatorIS1_EEE6secondB8ue170006Ev, symObjAddr: 0x10CB0, symBinAddr: 0x100011610, symSize: 0xD0 }
  - { offsetInCU: 0x24EA5, offset: 0x24EA5, size: 0x8, addend: 0x0, symName: __ZNSt3__122__compressed_pair_elemIRNS_9allocatorI4moveEELi1ELb0EE5__getB8ue170006Ev, symObjAddr: 0x10D80, symBinAddr: 0x1000116E0, symSize: 0x70 }
  - { offsetInCU: 0x24ECB, offset: 0x24ECB, size: 0x8, addend: 0x0, symName: __ZNSt3__117__compressed_pairIP4moveRNS_9allocatorIS1_EEE5firstB8ue170006Ev, symObjAddr: 0x10DF0, symBinAddr: 0x100011750, symSize: 0xE0 }
  - { offsetInCU: 0x24EF1, offset: 0x24EF1, size: 0x8, addend: 0x0, symName: __ZNSt3__122__compressed_pair_elemIP4moveLi0ELb0EE5__getB8ue170006Ev, symObjAddr: 0x10ED0, symBinAddr: 0x100011830, symSize: 0x80 }
  - { offsetInCU: 0x24F17, offset: 0x24F17, size: 0x8, addend: 0x0, symName: __ZNKSt3__16vectorI4moveNS_9allocatorIS1_EEE17__annotate_deleteB8ue170006Ev, symObjAddr: 0x10F50, symBinAddr: 0x1000118B0, symSize: 0x1D0 }
  - { offsetInCU: 0x24F3D, offset: 0x24F3D, size: 0x8, addend: 0x0, symName: __ZNSt3__116reverse_iteratorIP4moveEC1B8ue170006ES2_, symObjAddr: 0x111A0, symBinAddr: 0x100011B00, symSize: 0x60 }
  - { offsetInCU: 0x24F75, offset: 0x24F75, size: 0x8, addend: 0x0, symName: __ZNKSt3__116reverse_iteratorIP4moveE4baseB8ue170006Ev, symObjAddr: 0x11200, symBinAddr: 0x100011B60, symSize: 0x50 }
  - { offsetInCU: 0x24F9B, offset: 0x24F9B, size: 0x8, addend: 0x0, symName: __ZNSt3__16vectorI4moveNS_9allocatorIS1_EEE9__end_capB8ue170006Ev, symObjAddr: 0x11300, symBinAddr: 0x100011C60, symSize: 0xC0 }
  - { offsetInCU: 0x24FC1, offset: 0x24FC1, size: 0x8, addend: 0x0, symName: __ZNKSt3__16vectorI4moveNS_9allocatorIS1_EEE14__annotate_newB8ue170006Em, symObjAddr: 0x113C0, symBinAddr: 0x100011D20, symSize: 0x1D0 }
  - { offsetInCU: 0x24FF6, offset: 0x24FF6, size: 0x8, addend: 0x0, symName: __ZNKSt3__16vectorI4moveNS_9allocatorIS1_EEE31__annotate_contiguous_containerB8ue170006EPKvS6_S6_S6_, symObjAddr: 0x11590, symBinAddr: 0x100011EF0, symSize: 0x60 }
  - { offsetInCU: 0x2504C, offset: 0x2504C, size: 0x8, addend: 0x0, symName: __ZNKSt3__16vectorI4moveNS_9allocatorIS1_EEE4dataB8ue170006Ev, symObjAddr: 0x115F0, symBinAddr: 0x100011F50, symSize: 0x60 }
  - { offsetInCU: 0x250A0, offset: 0x250A0, size: 0x8, addend: 0x0, symName: __ZNKSt3__111__move_loopINS_17_ClassicAlgPolicyEEclB8ue170006INS_16reverse_iteratorIP4moveEES7_S7_EENS_4pairIT_T1_EES9_T0_SA_, symObjAddr: 0x11AA0, symBinAddr: 0x100012400, symSize: 0x160 }
  - { offsetInCU: 0x2510B, offset: 0x2510B, size: 0x8, addend: 0x0, symName: __ZNSt3__119__unwrap_range_implINS_16reverse_iteratorIP4moveEES4_E8__unwrapB8ue170006ES4_S4_, symObjAddr: 0x11E10, symBinAddr: 0x100012770, symSize: 0xC0 }
  - { offsetInCU: 0x25142, offset: 0x25142, size: 0x8, addend: 0x0, symName: __ZNSt3__14pairINS_16reverse_iteratorIP4moveEES4_EC1B8ue170006IS4_S4_LPv0EEEOT_OT0_, symObjAddr: 0x11ED0, symBinAddr: 0x100012830, symSize: 0x60 }
  - { offsetInCU: 0x251A0, offset: 0x251A0, size: 0x8, addend: 0x0, symName: __ZNSt3__14pairINS_16reverse_iteratorIP4moveEES4_EC2B8ue170006IS4_S4_LPv0EEEOT_OT0_, symObjAddr: 0x11F30, symBinAddr: 0x100012890, symSize: 0x80 }
  - { offsetInCU: 0x25204, offset: 0x25204, size: 0x8, addend: 0x0, symName: __ZNSt3__18_IterOpsINS_17_ClassicAlgPolicyEE11__iter_moveB8ue170006IRNS_16reverse_iteratorIP4moveEEEENS_9enable_ifIXsr12is_referenceIDTdeclsr3stdE7declvalIRT_EEEEE5valueEDTclsr3stdE4movedeclsr3stdE7declvalISB_EEEEE4typeEOSA_, symObjAddr: 0x12050, symBinAddr: 0x1000129B0, symSize: 0xA0 }
  - { offsetInCU: 0x25230, offset: 0x25230, size: 0x8, addend: 0x0, symName: __ZNKSt3__116reverse_iteratorIP4moveEdeB8ue170006Ev, symObjAddr: 0x120F0, symBinAddr: 0x100012A50, symSize: 0xE0 }
  - { offsetInCU: 0x25264, offset: 0x25264, size: 0x8, addend: 0x0, symName: __ZNSt3__116reverse_iteratorIP4moveEppB8ue170006Ev, symObjAddr: 0x121D0, symBinAddr: 0x100012B30, symSize: 0xF0 }
  - { offsetInCU: 0x2528A, offset: 0x2528A, size: 0x8, addend: 0x0, symName: __ZNSt3__18_IterOpsINS_17_ClassicAlgPolicyEE25__validate_iter_referenceB8ue170006IRNS_16reverse_iteratorIP4moveEEEEvv, symObjAddr: 0x122C0, symBinAddr: 0x100012C20, symSize: 0x10 }
  - { offsetInCU: 0x252A8, offset: 0x252A8, size: 0x8, addend: 0x0, symName: __ZNSt3__118__unwrap_iter_implINS_16reverse_iteratorIP4moveEELb0EE8__unwrapB8ue170006ES4_, symObjAddr: 0x122D0, symBinAddr: 0x100012C30, symSize: 0x30 }
  - { offsetInCU: 0x252CB, offset: 0x252CB, size: 0x8, addend: 0x0, symName: __ZNSt3__119__unwrap_range_implINS_16reverse_iteratorIP4moveEES4_E8__rewrapB8ue170006ES4_S4_, symObjAddr: 0x12300, symBinAddr: 0x100012C60, symSize: 0x60 }
  - { offsetInCU: 0x252FC, offset: 0x252FC, size: 0x8, addend: 0x0, symName: __ZNSt3__118__unwrap_iter_implINS_16reverse_iteratorIP4moveEELb0EE8__rewrapB8ue170006ES4_S4_, symObjAddr: 0x12360, symBinAddr: 0x100012CC0, symSize: 0x30 }
  - { offsetInCU: 0x2532A, offset: 0x2532A, size: 0x8, addend: 0x0, symName: __ZNSt3__116reverse_iteratorIP4moveEC2B8ue170006ES2_, symObjAddr: 0x12390, symBinAddr: 0x100012CF0, symSize: 0x60 }
  - { offsetInCU: 0x25362, offset: 0x25362, size: 0x8, addend: 0x0, symName: __ZNSt3__117__compressed_pairIP4moveNS_9allocatorIS1_EEE5firstB8ue170006Ev, symObjAddr: 0x123F0, symBinAddr: 0x100012D50, symSize: 0xE0 }
  - { offsetInCU: 0x25388, offset: 0x25388, size: 0x8, addend: 0x0, symName: __ZNSt3__114__split_bufferI4moveRNS_9allocatorIS1_EEED2Ev, symObjAddr: 0x124D0, symBinAddr: 0x100012E30, symSize: 0xC0 }
  - { offsetInCU: 0x253B4, offset: 0x253B4, size: 0x8, addend: 0x0, symName: __ZNSt3__114__split_bufferI4moveRNS_9allocatorIS1_EEE5clearB8ue170006Ev, symObjAddr: 0x12590, symBinAddr: 0x100012EF0, symSize: 0x60 }
  - { offsetInCU: 0x253DA, offset: 0x253DA, size: 0x8, addend: 0x0, symName: __ZNSt3__116allocator_traitsINS_9allocatorI4moveEEE10deallocateB8ue170006ERS3_PS2_m, symObjAddr: 0x125F0, symBinAddr: 0x100012F50, symSize: 0x40 }
  - { offsetInCU: 0x2541C, offset: 0x2541C, size: 0x8, addend: 0x0, symName: __ZNKSt3__114__split_bufferI4moveRNS_9allocatorIS1_EEE8capacityB8ue170006Ev, symObjAddr: 0x12630, symBinAddr: 0x100012F90, symSize: 0xA0 }
  - { offsetInCU: 0x25442, offset: 0x25442, size: 0x8, addend: 0x0, symName: __ZNSt3__114__split_bufferI4moveRNS_9allocatorIS1_EEE17__destruct_at_endB8ue170006EPS1_, symObjAddr: 0x126D0, symBinAddr: 0x100013030, symSize: 0x60 }
  - { offsetInCU: 0x25476, offset: 0x25476, size: 0x8, addend: 0x0, symName: __ZNSt3__114__split_bufferI4moveRNS_9allocatorIS1_EEE17__destruct_at_endB8ue170006EPS1_NS_17integral_constantIbLb0EEE, symObjAddr: 0x12730, symBinAddr: 0x100013090, symSize: 0x120 }
  - { offsetInCU: 0x254B7, offset: 0x254B7, size: 0x8, addend: 0x0, symName: __ZNSt3__116allocator_traitsINS_9allocatorI4moveEEE7destroyB8ue170006IS2_vvEEvRS3_PT_, symObjAddr: 0x12850, symBinAddr: 0x1000131B0, symSize: 0x30 }
  - { offsetInCU: 0x254F2, offset: 0x254F2, size: 0x8, addend: 0x0, symName: __ZNSt3__19allocatorI4moveE10deallocateB8ue170006EPS1_m, symObjAddr: 0x128D0, symBinAddr: 0x100013230, symSize: 0x70 }
  - { offsetInCU: 0x25534, offset: 0x25534, size: 0x8, addend: 0x0, symName: __ZNKSt3__114__split_bufferI4moveRNS_9allocatorIS1_EEE9__end_capB8ue170006Ev, symObjAddr: 0x12940, symBinAddr: 0x1000132A0, symSize: 0xC0 }
  - { offsetInCU: 0x2555A, offset: 0x2555A, size: 0x8, addend: 0x0, symName: __ZNKSt3__117__compressed_pairIP4moveRNS_9allocatorIS1_EEE5firstB8ue170006Ev, symObjAddr: 0x12A00, symBinAddr: 0x100013360, symSize: 0xE0 }
  - { offsetInCU: 0x25580, offset: 0x25580, size: 0x8, addend: 0x0, symName: __ZNKSt3__15arrayINS0_INS_8optionalI5pieceEELm8EEELm8EEixB8ue170006Em, symObjAddr: 0x12AE0, symBinAddr: 0x100013440, symSize: 0xE0 }
  - { offsetInCU: 0x255B4, offset: 0x255B4, size: 0x8, addend: 0x0, symName: __ZNKSt3__15arrayINS_8optionalI5pieceEELm8EEixB8ue170006Em, symObjAddr: 0x12BC0, symBinAddr: 0x100013520, symSize: 0xE0 }
  - { offsetInCU: 0x255E8, offset: 0x255E8, size: 0x8, addend: 0x0, symName: __ZNKRSt3__18optionalI5pieceE5valueB8ue170006Ev, symObjAddr: 0x12CA0, symBinAddr: 0x100013600, symSize: 0x90 }
  - { offsetInCU: 0x2560E, offset: 0x2560E, size: 0x8, addend: 0x0, symName: __ZN11PieceChecks14is_under_checkE11piece_color, symObjAddr: 0x12D70, symBinAddr: 0x1000136D0, symSize: 0x5C0 }
  - { offsetInCU: 0x256A5, offset: 0x256A5, size: 0x8, addend: 0x0, symName: __ZN8Position7negamaxEffi11piece_color, symObjAddr: 0x13330, symBinAddr: 0x100013C90, symSize: 0x390 }
  - { offsetInCU: 0x2574A, offset: 0x2574A, size: 0x8, addend: 0x0, symName: __ZNSt3__16vectorI4moveNS_9allocatorIS1_EEE5clearB8ue170006Ev, symObjAddr: 0x136C0, symBinAddr: 0x100014020, symSize: 0x70 }
  - { offsetInCU: 0x2577F, offset: 0x2577F, size: 0x8, addend: 0x0, symName: __ZNSt3__16vectorI4moveNS_9allocatorIS1_EEE9push_backB8ue170006EOS1_, symObjAddr: 0x13730, symBinAddr: 0x100014090, symSize: 0x130 }
  - { offsetInCU: 0x257B6, offset: 0x257B6, size: 0x8, addend: 0x0, symName: __ZNSt3__16vectorI4moveNS_9allocatorIS1_EEEaSB8ue170006ERKS4_, symObjAddr: 0x13930, symBinAddr: 0x100014290, symSize: 0x140 }
  - { offsetInCU: 0x257ED, offset: 0x257ED, size: 0x8, addend: 0x0, symName: __ZNKRSt3__123__optional_storage_baseI5pieceLb0EE5__getB8ue170006Ev, symObjAddr: 0x13AF0, symBinAddr: 0x100014450, symSize: 0x60 }
  - { offsetInCU: 0x25824, offset: 0x25824, size: 0x8, addend: 0x0, symName: __ZNSt19bad_optional_accessC1Ev, symObjAddr: 0x13B50, symBinAddr: 0x1000144B0, symSize: 0x50 }
  - { offsetInCU: 0x25850, offset: 0x25850, size: 0x8, addend: 0x0, symName: __ZNSt19bad_optional_accessC2Ev, symObjAddr: 0x13BA0, symBinAddr: 0x100014500, symSize: 0xA0 }
  - { offsetInCU: 0x2587C, offset: 0x2587C, size: 0x8, addend: 0x0, symName: __ZNSt9exceptionC2B8ue170006Ev, symObjAddr: 0x13C40, symBinAddr: 0x1000145A0, symSize: 0x60 }
  - { offsetInCU: 0x258A6, offset: 0x258A6, size: 0x8, addend: 0x0, symName: __ZNSt3__18optionalI9board_posEC1B8ue170006ENS_9nullopt_tE, symObjAddr: 0x13CF0, symBinAddr: 0x100014650, symSize: 0x50 }
  - { offsetInCU: 0x258E2, offset: 0x258E2, size: 0x8, addend: 0x0, symName: __ZNSt3__18optionalI9board_posEaSB8ue170006IS1_vEERS2_OT_, symObjAddr: 0x13D40, symBinAddr: 0x1000146A0, symSize: 0x160 }
  - { offsetInCU: 0x25921, offset: 0x25921, size: 0x8, addend: 0x0, symName: __ZNRSt3__18optionalI5pieceE5valueB8ue170006Ev, symObjAddr: 0x13EA0, symBinAddr: 0x100014800, symSize: 0x90 }
  - { offsetInCU: 0x25947, offset: 0x25947, size: 0x8, addend: 0x0, symName: __ZNSt3__18optionalI9board_posEC2B8ue170006ENS_9nullopt_tE, symObjAddr: 0x13F30, symBinAddr: 0x100014890, symSize: 0x80 }
  - { offsetInCU: 0x25983, offset: 0x25983, size: 0x8, addend: 0x0, symName: __ZNSt3__127__optional_move_assign_baseI9board_posLb1EEC2Ev, symObjAddr: 0x13FB0, symBinAddr: 0x100014910, symSize: 0x80 }
  - { offsetInCU: 0x259B6, offset: 0x259B6, size: 0x8, addend: 0x0, symName: __ZNSt3__127__optional_copy_assign_baseI9board_posLb1EEC2Ev, symObjAddr: 0x14030, symBinAddr: 0x100014990, symSize: 0x80 }
  - { offsetInCU: 0x259E9, offset: 0x259E9, size: 0x8, addend: 0x0, symName: __ZNSt3__120__optional_move_baseI9board_posLb1EEC2Ev, symObjAddr: 0x140B0, symBinAddr: 0x100014A10, symSize: 0x80 }
  - { offsetInCU: 0x25A1C, offset: 0x25A1C, size: 0x8, addend: 0x0, symName: __ZNSt3__120__optional_copy_baseI9board_posLb1EEC2Ev, symObjAddr: 0x14130, symBinAddr: 0x100014A90, symSize: 0x80 }
  - { offsetInCU: 0x25A49, offset: 0x25A49, size: 0x8, addend: 0x0, symName: __ZNSt3__123__optional_storage_baseI9board_posLb0EEC2Ev, symObjAddr: 0x141B0, symBinAddr: 0x100014B10, symSize: 0x80 }
  - { offsetInCU: 0x25A76, offset: 0x25A76, size: 0x8, addend: 0x0, symName: __ZNSt3__124__optional_destruct_baseI9board_posLb1EEC2B8ue170006Ev, symObjAddr: 0x14230, symBinAddr: 0x100014B90, symSize: 0x60 }
  - { offsetInCU: 0x25AA0, offset: 0x25AA0, size: 0x8, addend: 0x0, symName: __ZNRSt3__123__optional_storage_baseI9board_posLb0EE5__getB8ue170006Ev, symObjAddr: 0x14290, symBinAddr: 0x100014BF0, symSize: 0xA0 }
  - { offsetInCU: 0x25AC6, offset: 0x25AC6, size: 0x8, addend: 0x0, symName: __ZNSt3__123__optional_storage_baseI9board_posLb0EE11__constructB8ue170006IJS1_EEEvDpOT_, symObjAddr: 0x14330, symBinAddr: 0x100014C90, symSize: 0xE0 }
  - { offsetInCU: 0x25B06, offset: 0x25B06, size: 0x8, addend: 0x0, symName: __ZNK11PieceChecks4hashEv, symObjAddr: 0x144B0, symBinAddr: 0x100014E10, symSize: 0x930 }
  - { offsetInCU: 0x25BAA, offset: 0x25BAA, size: 0x8, addend: 0x0, symName: __ZNSt3__113unordered_mapIy13zobrist_valueNS_4hashIyEENS_8equal_toIyEENS_9allocatorINS_4pairIKyS1_EEEEE4findB8ue170006ERS8_, symObjAddr: 0x14DE0, symBinAddr: 0x100015740, symSize: 0xD0 }
  - { offsetInCU: 0x25BDF, offset: 0x25BDF, size: 0x8, addend: 0x0, symName: __ZNSt3__113unordered_mapIy13zobrist_valueNS_4hashIyEENS_8equal_toIyEENS_9allocatorINS_4pairIKyS1_EEEEE3endB8ue170006Ev, symObjAddr: 0x14F50, symBinAddr: 0x1000158B0, symSize: 0xA0 }
  - { offsetInCU: 0x25C05, offset: 0x25C05, size: 0x8, addend: 0x0, symName: __ZNKSt3__119__hash_map_iteratorINS_15__hash_iteratorIPNS_11__hash_nodeINS_17__hash_value_typeIy13zobrist_valueEEPvEEEEEptB8ue170006Ev, symObjAddr: 0x14FF0, symBinAddr: 0x100015950, symSize: 0x100 }
  - { offsetInCU: 0x25C2B, offset: 0x25C2B, size: 0x8, addend: 0x0, symName: __ZNK8Position15search_capturesEffi, symObjAddr: 0x150F0, symBinAddr: 0x100015A50, symSize: 0x830 }
  - { offsetInCU: 0x25D43, offset: 0x25D43, size: 0x8, addend: 0x0, symName: __ZN8Position16evaluate_negamaxEffi, symObjAddr: 0x15920, symBinAddr: 0x100016280, symSize: 0x850 }
  - { offsetInCU: 0x25E30, offset: 0x25E30, size: 0x8, addend: 0x0, symName: __ZNSt3__113unordered_mapIy13zobrist_valueNS_4hashIyEENS_8equal_toIyEENS_9allocatorINS_4pairIKyS1_EEEEEixERS8_, symObjAddr: 0x16170, symBinAddr: 0x100016AD0, symSize: 0x1D0 }
  - { offsetInCU: 0x25E67, offset: 0x25E67, size: 0x8, addend: 0x0, symName: __ZN18TranspositionTable13piece_to_hashE11piece_color10piece_type, symObjAddr: 0x16340, symBinAddr: 0x100016CA0, symSize: 0xF0 }
  - { offsetInCU: 0x25EA9, offset: 0x25EA9, size: 0x8, addend: 0x0, symName: __ZNKSt3__18optionalI5pieceEptB8ue170006Ev, symObjAddr: 0x16430, symBinAddr: 0x100016D90, symSize: 0x40 }
  - { offsetInCU: 0x25ECF, offset: 0x25ECF, size: 0x8, addend: 0x0, symName: __ZNKRSt3__18optionalIaE5valueB8ue170006Ev, symObjAddr: 0x16470, symBinAddr: 0x100016DD0, symSize: 0x90 }
  - { offsetInCU: 0x25EF5, offset: 0x25EF5, size: 0x8, addend: 0x0, symName: __ZNKSt3__15arrayINS0_IbLm2EEELm2EEixB8ue170006Em, symObjAddr: 0x16500, symBinAddr: 0x100016E60, symSize: 0xE0 }
  - { offsetInCU: 0x25F29, offset: 0x25F29, size: 0x8, addend: 0x0, symName: __ZNKSt3__15arrayIbLm2EEixB8ue170006Em, symObjAddr: 0x165E0, symBinAddr: 0x100016F40, symSize: 0xE0 }
  - { offsetInCU: 0x25F5D, offset: 0x25F5D, size: 0x8, addend: 0x0, symName: __ZNKRSt3__123__optional_storage_baseIaLb0EE5__getB8ue170006Ev, symObjAddr: 0x166C0, symBinAddr: 0x100017020, symSize: 0x60 }
  - { offsetInCU: 0x25F83, offset: 0x25F83, size: 0x8, addend: 0x0, symName: __ZNSt3__112__hash_tableINS_17__hash_value_typeIy13zobrist_valueEENS_22__unordered_map_hasherIyS3_NS_4hashIyEENS_8equal_toIyEELb1EEENS_21__unordered_map_equalIyS3_S8_S6_Lb1EEENS_9allocatorIS3_EEE4findIyEENS_15__hash_iteratorIPNS_11__hash_nodeIS3_PvEEEERKT_, symObjAddr: 0x16720, symBinAddr: 0x100017080, symSize: 0x500 }
  - { offsetInCU: 0x2600D, offset: 0x2600D, size: 0x8, addend: 0x0, symName: __ZNSt3__119__hash_map_iteratorINS_15__hash_iteratorIPNS_11__hash_nodeINS_17__hash_value_typeIy13zobrist_valueEEPvEEEEEC1B8ue170006ES9_, symObjAddr: 0x16C20, symBinAddr: 0x100017580, symSize: 0x60 }
  - { offsetInCU: 0x26046, offset: 0x26046, size: 0x8, addend: 0x0, symName: __ZNSt3__112__hash_tableINS_17__hash_value_typeIy13zobrist_valueEENS_22__unordered_map_hasherIyS3_NS_4hashIyEENS_8equal_toIyEELb1EEENS_21__unordered_map_equalIyS3_S8_S6_Lb1EEENS_9allocatorIS3_EEE13hash_functionB8ue170006Ev, symObjAddr: 0x16C80, symBinAddr: 0x1000175E0, symSize: 0xB0 }
  - { offsetInCU: 0x2606C, offset: 0x2606C, size: 0x8, addend: 0x0, symName: __ZNKSt3__122__unordered_map_hasherIyNS_17__hash_value_typeIy13zobrist_valueEENS_4hashIyEENS_8equal_toIyEELb1EEclB8ue170006ERKy, symObjAddr: 0x16D30, symBinAddr: 0x100017690, symSize: 0x70 }
  - { offsetInCU: 0x260A1, offset: 0x260A1, size: 0x8, addend: 0x0, symName: __ZNKSt3__112__hash_tableINS_17__hash_value_typeIy13zobrist_valueEENS_22__unordered_map_hasherIyS3_NS_4hashIyEENS_8equal_toIyEELb1EEENS_21__unordered_map_equalIyS3_S8_S6_Lb1EEENS_9allocatorIS3_EEE12bucket_countB8ue170006Ev, symObjAddr: 0x16DA0, symBinAddr: 0x100017700, symSize: 0xC0 }
  - { offsetInCU: 0x260C7, offset: 0x260C7, size: 0x8, addend: 0x0, symName: __ZNKSt3__110unique_ptrIA_PNS_16__hash_node_baseIPNS_11__hash_nodeINS_17__hash_value_typeIy13zobrist_valueEEPvEEEENS_25__bucket_list_deallocatorINS_9allocatorISA_EEEEEixB8ue170006Em, symObjAddr: 0x16F20, symBinAddr: 0x100017880, symSize: 0x150 }
  - { offsetInCU: 0x260FC, offset: 0x260FC, size: 0x8, addend: 0x0, symName: __ZNKSt3__116__hash_node_baseIPNS_11__hash_nodeINS_17__hash_value_typeIy13zobrist_valueEEPvEEE6__hashB8ue170006Ev, symObjAddr: 0x17070, symBinAddr: 0x1000179D0, symSize: 0xF0 }
  - { offsetInCU: 0x26122, offset: 0x26122, size: 0x8, addend: 0x0, symName: __ZNSt3__112__hash_tableINS_17__hash_value_typeIy13zobrist_valueEENS_22__unordered_map_hasherIyS3_NS_4hashIyEENS_8equal_toIyEELb1EEENS_21__unordered_map_equalIyS3_S8_S6_Lb1EEENS_9allocatorIS3_EEE6key_eqB8ue170006Ev, symObjAddr: 0x17160, symBinAddr: 0x100017AC0, symSize: 0xB0 }
  - { offsetInCU: 0x26148, offset: 0x26148, size: 0x8, addend: 0x0, symName: __ZNKSt3__121__unordered_map_equalIyNS_17__hash_value_typeIy13zobrist_valueEENS_8equal_toIyEENS_4hashIyEELb1EEclB8ue170006ERKS3_RKy, symObjAddr: 0x17210, symBinAddr: 0x100017B70, symSize: 0x140 }
  - { offsetInCU: 0x2618C, offset: 0x2618C, size: 0x8, addend: 0x0, symName: __ZNSt3__115__hash_iteratorIPNS_11__hash_nodeINS_17__hash_value_typeIy13zobrist_valueEEPvEEEC1B8ue170006EPNS_16__hash_node_baseIS7_EE, symObjAddr: 0x17350, symBinAddr: 0x100017CB0, symSize: 0x60 }
  - { offsetInCU: 0x261C5, offset: 0x261C5, size: 0x8, addend: 0x0, symName: __ZNSt3__112__hash_tableINS_17__hash_value_typeIy13zobrist_valueEENS_22__unordered_map_hasherIyS3_NS_4hashIyEENS_8equal_toIyEELb1EEENS_21__unordered_map_equalIyS3_S8_S6_Lb1EEENS_9allocatorIS3_EEE3endEv, symObjAddr: 0x173B0, symBinAddr: 0x100017D10, symSize: 0x60 }
  - { offsetInCU: 0x261ED, offset: 0x261ED, size: 0x8, addend: 0x0, symName: __ZNSt3__117__compressed_pairImNS_22__unordered_map_hasherIyNS_17__hash_value_typeIy13zobrist_valueEENS_4hashIyEENS_8equal_toIyEELb1EEEE6secondB8ue170006Ev, symObjAddr: 0x17410, symBinAddr: 0x100017D70, symSize: 0xD0 }
  - { offsetInCU: 0x26213, offset: 0x26213, size: 0x8, addend: 0x0, symName: __ZNSt3__122__compressed_pair_elemINS_22__unordered_map_hasherIyNS_17__hash_value_typeIy13zobrist_valueEENS_4hashIyEENS_8equal_toIyEELb1EEELi1ELb1EE5__getB8ue170006Ev, symObjAddr: 0x174E0, symBinAddr: 0x100017E40, symSize: 0x60 }
  - { offsetInCU: 0x26239, offset: 0x26239, size: 0x8, addend: 0x0, symName: __ZNKSt3__113__scalar_hashIyLm1EEclB8ue170006Ey, symObjAddr: 0x17540, symBinAddr: 0x100017EA0, symSize: 0x50 }
  - { offsetInCU: 0x2629F, offset: 0x2629F, size: 0x8, addend: 0x0, symName: __ZNKSt3__110unique_ptrIA_PNS_16__hash_node_baseIPNS_11__hash_nodeINS_17__hash_value_typeIy13zobrist_valueEEPvEEEENS_25__bucket_list_deallocatorINS_9allocatorISA_EEEEE11get_deleterB8ue170006Ev, symObjAddr: 0x17590, symBinAddr: 0x100017EF0, symSize: 0xC0 }
  - { offsetInCU: 0x262C5, offset: 0x262C5, size: 0x8, addend: 0x0, symName: __ZNKSt3__125__bucket_list_deallocatorINS_9allocatorIPNS_16__hash_node_baseIPNS_11__hash_nodeINS_17__hash_value_typeIy13zobrist_valueEEPvEEEEEEE4sizeB8ue170006Ev, symObjAddr: 0x17650, symBinAddr: 0x100017FB0, symSize: 0xC0 }
  - { offsetInCU: 0x262EB, offset: 0x262EB, size: 0x8, addend: 0x0, symName: __ZNKSt3__117__compressed_pairIPPNS_16__hash_node_baseIPNS_11__hash_nodeINS_17__hash_value_typeIy13zobrist_valueEEPvEEEENS_25__bucket_list_deallocatorINS_9allocatorISA_EEEEE6secondB8ue170006Ev, symObjAddr: 0x17710, symBinAddr: 0x100018070, symSize: 0xE0 }
  - { offsetInCU: 0x26311, offset: 0x26311, size: 0x8, addend: 0x0, symName: __ZNKSt3__122__compressed_pair_elemINS_25__bucket_list_deallocatorINS_9allocatorIPNS_16__hash_node_baseIPNS_11__hash_nodeINS_17__hash_value_typeIy13zobrist_valueEEPvEEEEEEEELi1ELb0EE5__getB8ue170006Ev, symObjAddr: 0x177F0, symBinAddr: 0x100018150, symSize: 0x80 }
  - { offsetInCU: 0x26337, offset: 0x26337, size: 0x8, addend: 0x0, symName: __ZNKSt3__117__compressed_pairImNS_9allocatorIPNS_16__hash_node_baseIPNS_11__hash_nodeINS_17__hash_value_typeIy13zobrist_valueEEPvEEEEEEE5firstB8ue170006Ev, symObjAddr: 0x17870, symBinAddr: 0x1000181D0, symSize: 0xE0 }
  - { offsetInCU: 0x2635D, offset: 0x2635D, size: 0x8, addend: 0x0, symName: __ZNKSt3__122__compressed_pair_elemImLi0ELb0EE5__getB8ue170006Ev, symObjAddr: 0x17950, symBinAddr: 0x1000182B0, symSize: 0x80 }
  - { offsetInCU: 0x26383, offset: 0x26383, size: 0x8, addend: 0x0, symName: __ZNKSt3__117__compressed_pairIPPNS_16__hash_node_baseIPNS_11__hash_nodeINS_17__hash_value_typeIy13zobrist_valueEEPvEEEENS_25__bucket_list_deallocatorINS_9allocatorISA_EEEEE5firstB8ue170006Ev, symObjAddr: 0x179D0, symBinAddr: 0x100018330, symSize: 0xE0 }
  - { offsetInCU: 0x263A9, offset: 0x263A9, size: 0x8, addend: 0x0, symName: __ZNKSt3__122__compressed_pair_elemIPPNS_16__hash_node_baseIPNS_11__hash_nodeINS_17__hash_value_typeIy13zobrist_valueEEPvEEEELi0ELb0EE5__getB8ue170006Ev, symObjAddr: 0x17AB0, symBinAddr: 0x100018410, symSize: 0x80 }
  - { offsetInCU: 0x263CF, offset: 0x263CF, size: 0x8, addend: 0x0, symName: __ZNSt3__117__compressed_pairIfNS_21__unordered_map_equalIyNS_17__hash_value_typeIy13zobrist_valueEENS_8equal_toIyEENS_4hashIyEELb1EEEE6secondB8ue170006Ev, symObjAddr: 0x17B30, symBinAddr: 0x100018490, symSize: 0xD0 }
  - { offsetInCU: 0x263F5, offset: 0x263F5, size: 0x8, addend: 0x0, symName: __ZNSt3__122__compressed_pair_elemINS_21__unordered_map_equalIyNS_17__hash_value_typeIy13zobrist_valueEENS_8equal_toIyEENS_4hashIyEELb1EEELi1ELb1EE5__getB8ue170006Ev, symObjAddr: 0x17C00, symBinAddr: 0x100018560, symSize: 0x60 }
  - { offsetInCU: 0x2641B, offset: 0x2641B, size: 0x8, addend: 0x0, symName: __ZNKSt3__18equal_toIyEclB8ue170006ERKyS3_, symObjAddr: 0x17C60, symBinAddr: 0x1000185C0, symSize: 0x60 }
  - { offsetInCU: 0x2645F, offset: 0x2645F, size: 0x8, addend: 0x0, symName: __ZNKSt3__117__hash_value_typeIy13zobrist_valueE11__get_valueB8ue170006Ev, symObjAddr: 0x17CC0, symBinAddr: 0x100018620, symSize: 0x90 }
  - { offsetInCU: 0x26485, offset: 0x26485, size: 0x8, addend: 0x0, symName: __ZNSt3__115__hash_iteratorIPNS_11__hash_nodeINS_17__hash_value_typeIy13zobrist_valueEEPvEEEC2B8ue170006EPNS_16__hash_node_baseIS7_EE, symObjAddr: 0x17DA0, symBinAddr: 0x100018700, symSize: 0x60 }
  - { offsetInCU: 0x264BE, offset: 0x264BE, size: 0x8, addend: 0x0, symName: __ZNSt3__119__hash_map_iteratorINS_15__hash_iteratorIPNS_11__hash_nodeINS_17__hash_value_typeIy13zobrist_valueEEPvEEEEEC2B8ue170006ES9_, symObjAddr: 0x17E00, symBinAddr: 0x100018760, symSize: 0x60 }
  - { offsetInCU: 0x264F7, offset: 0x264F7, size: 0x8, addend: 0x0, symName: __ZNSt3__114pointer_traitsIPNS_4pairIKy13zobrist_valueEEE10pointer_toB8ue170006ERS4_, symObjAddr: 0x17EF0, symBinAddr: 0x100018850, symSize: 0x20 }
  - { offsetInCU: 0x2651A, offset: 0x2651A, size: 0x8, addend: 0x0, symName: __ZNKSt3__115__hash_iteratorIPNS_11__hash_nodeINS_17__hash_value_typeIy13zobrist_valueEEPvEEEptB8ue170006Ev, symObjAddr: 0x17F10, symBinAddr: 0x100018870, symSize: 0x100 }
  - { offsetInCU: 0x26540, offset: 0x26540, size: 0x8, addend: 0x0, symName: __ZNSt3__114pointer_traitsIPNS_17__hash_value_typeIy13zobrist_valueEEE10pointer_toB8ue170006ERS3_, symObjAddr: 0x18010, symBinAddr: 0x100018970, symSize: 0x20 }
  - { offsetInCU: 0x26563, offset: 0x26563, size: 0x8, addend: 0x0, symName: __ZL15get_color_value11piece_color, symObjAddr: 0x18030, symBinAddr: 0x100018990, symSize: 0x60 }
  - { offsetInCU: 0x26590, offset: 0x26590, size: 0x8, addend: 0x0, symName: __ZNK8Position8evaluateEv, symObjAddr: 0x18090, symBinAddr: 0x1000189F0, symSize: 0x1AA0 }
  - { offsetInCU: 0x266D4, offset: 0x266D4, size: 0x8, addend: 0x0, symName: __ZNK8Position11order_movesERNSt3__16vectorI4moveNS0_9allocatorIS2_EEEE, symObjAddr: 0x19C00, symBinAddr: 0x10001A560, symSize: 0x8C0 }
  - { offsetInCU: 0x267C3, offset: 0x267C3, size: 0x8, addend: 0x0, symName: __ZNK11PieceChecks14get_game_phaseEv, symObjAddr: 0x1A4C0, symBinAddr: 0x10001AE20, symSize: 0x440 }
  - { offsetInCU: 0x26871, offset: 0x26871, size: 0x8, addend: 0x0, symName: __ZNSt3__15arrayINS_8optionalI9board_posEELm2EEixB8ue170006Em, symObjAddr: 0x1A900, symBinAddr: 0x10001B260, symSize: 0x110 }
  - { offsetInCU: 0x268A5, offset: 0x268A5, size: 0x8, addend: 0x0, symName: __ZN11PieceChecks15get_piece_valueE10piece_type, symObjAddr: 0x1AA10, symBinAddr: 0x10001B370, symSize: 0x140 }
  - { offsetInCU: 0x268D6, offset: 0x268D6, size: 0x8, addend: 0x0, symName: __ZNK11PieceChecks23targetted_squares_countEv, symObjAddr: 0x1AB50, symBinAddr: 0x10001B4B0, symSize: 0x360 }
  - { offsetInCU: 0x26950, offset: 0x26950, size: 0x8, addend: 0x0, symName: __ZNSt3__15arrayIiLm2EEixB8ue170006Em, symObjAddr: 0x1AEB0, symBinAddr: 0x10001B810, symSize: 0x100 }
  - { offsetInCU: 0x26984, offset: 0x26984, size: 0x8, addend: 0x0, symName: __ZNSt3__18optionalI9board_posEptB8ue170006Ev, symObjAddr: 0x1AFB0, symBinAddr: 0x10001B910, symSize: 0x80 }
  - { offsetInCU: 0x269AA, offset: 0x269AA, size: 0x8, addend: 0x0, symName: __ZNKSt3__15arrayINS0_INS_8optionalI5pieceEELm8EEELm8EE4sizeB8ue170006Ev, symObjAddr: 0x1B070, symBinAddr: 0x10001B9D0, symSize: 0x40 }
  - { offsetInCU: 0x269D0, offset: 0x269D0, size: 0x8, addend: 0x0, symName: __ZNKSt3__15arrayINS_8optionalI5pieceEELm8EE4sizeB8ue170006Ev, symObjAddr: 0x1B0B0, symBinAddr: 0x10001BA10, symSize: 0x40 }
  - { offsetInCU: 0x269F6, offset: 0x269F6, size: 0x8, addend: 0x0, symName: __ZNKSt3__16__lessIvvEclB8ue170006IffEEbRKT_RKT0_, symObjAddr: 0x1B290, symBinAddr: 0x10001BBF0, symSize: 0x60 }
  - { offsetInCU: 0x26A4A, offset: 0x26A4A, size: 0x8, addend: 0x0, symName: __ZNSt3__16vectorI4moveNS_9allocatorIS1_EEE5beginB8ue170006Ev, symObjAddr: 0x1B2F0, symBinAddr: 0x10001BC50, symSize: 0x60 }
  - { offsetInCU: 0x26A72, offset: 0x26A72, size: 0x8, addend: 0x0, symName: __ZNSt3__16vectorI4moveNS_9allocatorIS1_EEE3endB8ue170006Ev, symObjAddr: 0x1B350, symBinAddr: 0x10001BCB0, symSize: 0x60 }
  - { offsetInCU: 0x26A9A, offset: 0x26A9A, size: 0x8, addend: 0x0, symName: __ZNKSt3__111__wrap_iterIP4moveEdeB8ue170006Ev, symObjAddr: 0x1B450, symBinAddr: 0x10001BDB0, symSize: 0x90 }
  - { offsetInCU: 0x26AC0, offset: 0x26AC0, size: 0x8, addend: 0x0, symName: __ZNSt3__111__wrap_iterIP4moveEppB8ue170006Ev, symObjAddr: 0x1B4E0, symBinAddr: 0x10001BE40, symSize: 0xE0 }
  - { offsetInCU: 0x26AE6, offset: 0x26AE6, size: 0x8, addend: 0x0, symName: __ZNSt3__16vectorI4moveNS_9allocatorIS1_EEE11__make_iterB8ue170006EPS1_, symObjAddr: 0x1B600, symBinAddr: 0x10001BF60, symSize: 0x60 }
  - { offsetInCU: 0x26B1B, offset: 0x26B1B, size: 0x8, addend: 0x0, symName: __ZNSt3__111__wrap_iterIP4moveEC1B8ue170006ES2_, symObjAddr: 0x1B660, symBinAddr: 0x10001BFC0, symSize: 0x60 }
  - { offsetInCU: 0x26B53, offset: 0x26B53, size: 0x8, addend: 0x0, symName: __ZNSt3__111__wrap_iterIP4moveEC2B8ue170006ES2_, symObjAddr: 0x1B6C0, symBinAddr: 0x10001C020, symSize: 0x60 }
  - { offsetInCU: 0x26B8B, offset: 0x26B8B, size: 0x8, addend: 0x0, symName: __ZNKSt3__111__wrap_iterIP4moveE4baseB8ue170006Ev, symObjAddr: 0x1B7C0, symBinAddr: 0x10001C120, symSize: 0x50 }
  - { offsetInCU: 0x26BC2, offset: 0x26BC2, size: 0x8, addend: 0x0, symName: __ZZNK8Position11order_movesERNSt3__16vectorI4moveNS0_9allocatorIS2_EEEEENKUlRKS2_S8_E_clES8_S8_, symObjAddr: 0x1D260, symBinAddr: 0x10001DBC0, symSize: 0x90 }
  - { offsetInCU: 0x26C08, offset: 0x26C08, size: 0x8, addend: 0x0, symName: __ZNSt3__18_IterOpsINS_17_ClassicAlgPolicyEE9iter_swapB8ue170006IRP4moveS6_EEvOT_OT0_, symObjAddr: 0x1D2F0, symBinAddr: 0x10001DC50, symSize: 0xB0 }
  - { offsetInCU: 0x26C51, offset: 0x26C51, size: 0x8, addend: 0x0, symName: __ZNSt3__18_IterOpsINS_17_ClassicAlgPolicyEE9iter_swapB8ue170006IRP4moveS5_EEvOT_OT0_, symObjAddr: 0x1E1F0, symBinAddr: 0x10001EB50, symSize: 0xB0 }
  - { offsetInCU: 0x26C94, offset: 0x26C94, size: 0x8, addend: 0x0, symName: __ZNSt3__18_IterOpsINS_17_ClassicAlgPolicyEE11__iter_moveB8ue170006IRP4moveEENS_9enable_ifIXsr12is_referenceIDTdeclsr3stdE7declvalIRT_EEEEE5valueEDTclsr3stdE4movedeclsr3stdE7declvalIS9_EEEEE4typeEOS8_, symObjAddr: 0x20BA0, symBinAddr: 0x100021500, symSize: 0x90 }
  - { offsetInCU: 0x26CC0, offset: 0x26CC0, size: 0x8, addend: 0x0, symName: __ZNSt3__18_IterOpsINS_17_ClassicAlgPolicyEE25__validate_iter_referenceB8ue170006IRP4moveEEvv, symObjAddr: 0x20C30, symBinAddr: 0x100021590, symSize: 0x10 }
  - { offsetInCU: 0x26CDE, offset: 0x26CDE, size: 0x8, addend: 0x0, symName: __ZNSt3__18_IterOpsINS_17_ClassicAlgPolicyEE4nextB8ue170006IP4moveEET_S6_S6_, symObjAddr: 0x20C40, symBinAddr: 0x1000215A0, symSize: 0x20 }
  - { offsetInCU: 0x26D15, offset: 0x26D15, size: 0x8, addend: 0x0, symName: __ZNSt3__18_IterOpsINS_17_ClassicAlgPolicyEE9iter_swapB8ue170006IP4moveS5_EEvOT_OT0_, symObjAddr: 0x23B20, symBinAddr: 0x100024480, symSize: 0xB0 }
  - { offsetInCU: 0x26D7B, offset: 0x26D7B, size: 0x8, addend: 0x0, symName: __ZNSt3__14pairIP4movebEC1B8ue170006IRS2_RbLPv0EEEOT_OT0_, symObjAddr: 0x23C20, symBinAddr: 0x100024580, symSize: 0x60 }
  - { offsetInCU: 0x26DD9, offset: 0x26DD9, size: 0x8, addend: 0x0, symName: __ZNSt3__14pairIP4movebEC2B8ue170006IRS2_RbLPv0EEEOT_OT0_, symObjAddr: 0x23C80, symBinAddr: 0x1000245E0, symSize: 0xF0 }
  - { offsetInCU: 0x26E37, offset: 0x26E37, size: 0x8, addend: 0x0, symName: __ZNSt3__118__unwrap_iter_implINS_11__wrap_iterIP4moveEELb1EE8__unwrapB8ue170006ES4_, symObjAddr: 0x23D70, symBinAddr: 0x1000246D0, symSize: 0x30 }
  - { offsetInCU: 0x26E66, offset: 0x26E66, size: 0x8, addend: 0x0, symName: __ZNSt3__119__to_address_helperINS_11__wrap_iterIP4moveEEvE6__callB8ue170006ERKS4_, symObjAddr: 0x23E00, symBinAddr: 0x100024760, symSize: 0x30 }
  - { offsetInCU: 0x26E89, offset: 0x26E89, size: 0x8, addend: 0x0, symName: __ZNSt3__114pointer_traitsINS_11__wrap_iterIP4moveEEE10to_addressB8ue170006ES4_, symObjAddr: 0x23E30, symBinAddr: 0x100024790, symSize: 0x30 }
  - { offsetInCU: 0x26ED5, offset: 0x26ED5, size: 0x8, addend: 0x0, symName: __ZNSt3__112__hash_tableINS_17__hash_value_typeIy13zobrist_valueEENS_22__unordered_map_hasherIyS3_NS_4hashIyEENS_8equal_toIyEELb1EEENS_21__unordered_map_equalIyS3_S8_S6_Lb1EEENS_9allocatorIS3_EEE25__emplace_unique_key_argsIyJRKNS_21piecewise_construct_tENS_5tupleIJRKyEEENSJ_IJEEEEEENS_4pairINS_15__hash_iteratorIPNS_11__hash_nodeIS3_PvEEEEbEERKT_DpOT0_, symObjAddr: 0x23E60, symBinAddr: 0x1000247C0, symSize: 0x1360 }
  - { offsetInCU: 0x26FDD, offset: 0x26FDD, size: 0x8, addend: 0x0, symName: __ZNSt3__112__hash_tableINS_17__hash_value_typeIy13zobrist_valueEENS_22__unordered_map_hasherIyS3_NS_4hashIyEENS_8equal_toIyEELb1EEENS_21__unordered_map_equalIyS3_S8_S6_Lb1EEENS_9allocatorIS3_EEE21__construct_node_hashIRKNS_21piecewise_construct_tEJNS_5tupleIJRKyEEENSJ_IJEEEEEENS_10unique_ptrINS_11__hash_nodeIS3_PvEENS_22__hash_node_destructorINSC_ISR_EEEEEEmOT_DpOT0_, symObjAddr: 0x25230, symBinAddr: 0x100025B90, symSize: 0x5B0 }
  - { offsetInCU: 0x27079, offset: 0x27079, size: 0x8, addend: 0x0, symName: __ZNSt3__112__hash_tableINS_17__hash_value_typeIy13zobrist_valueEENS_22__unordered_map_hasherIyS3_NS_4hashIyEENS_8equal_toIyEELb1EEENS_21__unordered_map_equalIyS3_S8_S6_Lb1EEENS_9allocatorIS3_EEE4sizeB8ue170006Ev, symObjAddr: 0x257E0, symBinAddr: 0x100026140, symSize: 0xC0 }
  - { offsetInCU: 0x2709F, offset: 0x2709F, size: 0x8, addend: 0x0, symName: __ZNSt3__112__hash_tableINS_17__hash_value_typeIy13zobrist_valueEENS_22__unordered_map_hasherIyS3_NS_4hashIyEENS_8equal_toIyEELb1EEENS_21__unordered_map_equalIyS3_S8_S6_Lb1EEENS_9allocatorIS3_EEE15max_load_factorB8ue170006Ev, symObjAddr: 0x258A0, symBinAddr: 0x100026200, symSize: 0xC0 }
  - { offsetInCU: 0x270C5, offset: 0x270C5, size: 0x8, addend: 0x0, symName: __ZNSt3__112__hash_tableINS_17__hash_value_typeIy13zobrist_valueEENS_22__unordered_map_hasherIyS3_NS_4hashIyEENS_8equal_toIyEELb1EEENS_21__unordered_map_equalIyS3_S8_S6_Lb1EEENS_9allocatorIS3_EEE15__rehash_uniqueB8ue170006Em, symObjAddr: 0x25960, symBinAddr: 0x1000262C0, symSize: 0x60 }
  - { offsetInCU: 0x270F9, offset: 0x270F9, size: 0x8, addend: 0x0, symName: __Z4ceilB8ue170006f, symObjAddr: 0x25A10, symBinAddr: 0x100026370, symSize: 0x20 }
  - { offsetInCU: 0x27128, offset: 0x27128, size: 0x8, addend: 0x0, symName: __ZNSt3__116__hash_node_baseIPNS_11__hash_nodeINS_17__hash_value_typeIy13zobrist_valueEEPvEEE5__ptrB8ue170006Ev, symObjAddr: 0x25A30, symBinAddr: 0x100026390, symSize: 0x80 }
  - { offsetInCU: 0x2714E, offset: 0x2714E, size: 0x8, addend: 0x0, symName: __ZNKSt3__110unique_ptrINS_11__hash_nodeINS_17__hash_value_typeIy13zobrist_valueEEPvEENS_22__hash_node_destructorINS_9allocatorIS6_EEEEEptB8ue170006Ev, symObjAddr: 0x25AB0, symBinAddr: 0x100026410, symSize: 0xC0 }
  - { offsetInCU: 0x27174, offset: 0x27174, size: 0x8, addend: 0x0, symName: __ZNKSt3__110unique_ptrINS_11__hash_nodeINS_17__hash_value_typeIy13zobrist_valueEEPvEENS_22__hash_node_destructorINS_9allocatorIS6_EEEEE3getB8ue170006Ev, symObjAddr: 0x25B70, symBinAddr: 0x1000264D0, symSize: 0xC0 }
  - { offsetInCU: 0x2719A, offset: 0x2719A, size: 0x8, addend: 0x0, symName: __ZNSt3__110unique_ptrINS_11__hash_nodeINS_17__hash_value_typeIy13zobrist_valueEEPvEENS_22__hash_node_destructorINS_9allocatorIS6_EEEEE7releaseB8ue170006Ev, symObjAddr: 0x25C30, symBinAddr: 0x100026590, symSize: 0x140 }
  - { offsetInCU: 0x271CF, offset: 0x271CF, size: 0x8, addend: 0x0, symName: __ZNSt3__110unique_ptrINS_11__hash_nodeINS_17__hash_value_typeIy13zobrist_valueEEPvEENS_22__hash_node_destructorINS_9allocatorIS6_EEEEED1B8ue170006Ev, symObjAddr: 0x25D70, symBinAddr: 0x1000266D0, symSize: 0x50 }
  - { offsetInCU: 0x271FF, offset: 0x271FF, size: 0x8, addend: 0x0, symName: __ZNSt3__14pairINS_15__hash_iteratorIPNS_11__hash_nodeINS_17__hash_value_typeIy13zobrist_valueEEPvEEEEbEC1B8ue170006IS9_RbLS6_0EEEOT_OT0_, symObjAddr: 0x25DC0, symBinAddr: 0x100026720, symSize: 0x60 }
  - { offsetInCU: 0x2725D, offset: 0x2725D, size: 0x8, addend: 0x0, symName: __ZNSt3__116allocator_traitsINS_9allocatorINS_11__hash_nodeINS_17__hash_value_typeIy13zobrist_valueEEPvEEEEE8allocateB8ue170006ERS8_m, symObjAddr: 0x25E20, symBinAddr: 0x100026780, symSize: 0x30 }
  - { offsetInCU: 0x27290, offset: 0x27290, size: 0x8, addend: 0x0, symName: __ZNSt3__122__hash_node_destructorINS_9allocatorINS_11__hash_nodeINS_17__hash_value_typeIy13zobrist_valueEEPvEEEEEC1B8ue170006ERS8_b, symObjAddr: 0x25E50, symBinAddr: 0x1000267B0, symSize: 0xA0 }
  - { offsetInCU: 0x272DE, offset: 0x272DE, size: 0x8, addend: 0x0, symName: __ZNSt3__110unique_ptrINS_11__hash_nodeINS_17__hash_value_typeIy13zobrist_valueEEPvEENS_22__hash_node_destructorINS_9allocatorIS6_EEEEEC1B8ue170006ILb1EvEEPS6_NS_16__dependent_typeINS_27__unique_ptr_deleter_sfinaeISA_EEXT_EE20__good_rval_ref_typeE, symObjAddr: 0x25EF0, symBinAddr: 0x100026850, symSize: 0x60 }
  - { offsetInCU: 0x2732F, offset: 0x2732F, size: 0x8, addend: 0x0, symName: __ZNSt3__116allocator_traitsINS_9allocatorINS_11__hash_nodeINS_17__hash_value_typeIy13zobrist_valueEEPvEEEEE9constructB8ue170006INS_4pairIKyS4_EEJRKNS_21piecewise_construct_tENS_5tupleIJRSC_EEENSH_IJEEEEvvEEvRS8_PT_DpOT0_, symObjAddr: 0x25F50, symBinAddr: 0x1000268B0, symSize: 0xC0 }
  - { offsetInCU: 0x273AC, offset: 0x273AC, size: 0x8, addend: 0x0, symName: __ZNSt3__110unique_ptrINS_11__hash_nodeINS_17__hash_value_typeIy13zobrist_valueEEPvEENS_22__hash_node_destructorINS_9allocatorIS6_EEEEE11get_deleterB8ue170006Ev, symObjAddr: 0x26010, symBinAddr: 0x100026970, symSize: 0xC0 }
  - { offsetInCU: 0x273D2, offset: 0x273D2, size: 0x8, addend: 0x0, symName: __ZNSt3__19allocatorINS_11__hash_nodeINS_17__hash_value_typeIy13zobrist_valueEEPvEEE8allocateB8ue170006Em, symObjAddr: 0x260D0, symBinAddr: 0x100026A30, symSize: 0xB0 }
  - { offsetInCU: 0x27411, offset: 0x27411, size: 0x8, addend: 0x0, symName: __ZNSt3__116allocator_traitsINS_9allocatorINS_11__hash_nodeINS_17__hash_value_typeIy13zobrist_valueEEPvEEEEE8max_sizeB8ue170006IS8_vvEEmRKS8_, symObjAddr: 0x26180, symBinAddr: 0x100026AE0, symSize: 0x50 }
  - { offsetInCU: 0x2743D, offset: 0x2743D, size: 0x8, addend: 0x0, symName: __ZNSt3__122__hash_node_destructorINS_9allocatorINS_11__hash_nodeINS_17__hash_value_typeIy13zobrist_valueEEPvEEEEEC2B8ue170006ERS8_b, symObjAddr: 0x261D0, symBinAddr: 0x100026B30, symSize: 0xC0 }
  - { offsetInCU: 0x27485, offset: 0x27485, size: 0x8, addend: 0x0, symName: __ZNSt3__110unique_ptrINS_11__hash_nodeINS_17__hash_value_typeIy13zobrist_valueEEPvEENS_22__hash_node_destructorINS_9allocatorIS6_EEEEEC2B8ue170006ILb1EvEEPS6_NS_16__dependent_typeINS_27__unique_ptr_deleter_sfinaeISA_EEXT_EE20__good_rval_ref_typeE, symObjAddr: 0x26290, symBinAddr: 0x100026BF0, symSize: 0xA0 }
  - { offsetInCU: 0x274D6, offset: 0x274D6, size: 0x8, addend: 0x0, symName: __ZNSt3__117__compressed_pairIPNS_11__hash_nodeINS_17__hash_value_typeIy13zobrist_valueEEPvEENS_22__hash_node_destructorINS_9allocatorIS6_EEEEEC1B8ue170006IRS7_SB_EEOT_OT0_, symObjAddr: 0x26330, symBinAddr: 0x100026C90, symSize: 0x60 }
  - { offsetInCU: 0x2752E, offset: 0x2752E, size: 0x8, addend: 0x0, symName: __ZNSt3__117__compressed_pairIPNS_11__hash_nodeINS_17__hash_value_typeIy13zobrist_valueEEPvEENS_22__hash_node_destructorINS_9allocatorIS6_EEEEEC2B8ue170006IRS7_SB_EEOT_OT0_, symObjAddr: 0x26390, symBinAddr: 0x100026CF0, symSize: 0x140 }
  - { offsetInCU: 0x27586, offset: 0x27586, size: 0x8, addend: 0x0, symName: __ZNSt3__122__compressed_pair_elemIPNS_11__hash_nodeINS_17__hash_value_typeIy13zobrist_valueEEPvEELi0ELb0EEC2B8ue170006IRS7_vEEOT_, symObjAddr: 0x264D0, symBinAddr: 0x100026E30, symSize: 0x90 }
  - { offsetInCU: 0x275C8, offset: 0x275C8, size: 0x8, addend: 0x0, symName: __ZNSt3__122__compressed_pair_elemINS_22__hash_node_destructorINS_9allocatorINS_11__hash_nodeINS_17__hash_value_typeIy13zobrist_valueEEPvEEEEEELi1ELb0EEC2B8ue170006ISA_vEEOT_, symObjAddr: 0x26560, symBinAddr: 0x100026EC0, symSize: 0x60 }
  - { offsetInCU: 0x2760A, offset: 0x2760A, size: 0x8, addend: 0x0, symName: __ZNSt3__14pairIKy13zobrist_valueEC1B8ue170006IJRS1_EJEEENS_21piecewise_construct_tENS_5tupleIJDpT_EEENS7_IJDpT0_EEE, symObjAddr: 0x26680, symBinAddr: 0x100026FE0, symSize: 0x70 }
  - { offsetInCU: 0x27671, offset: 0x27671, size: 0x8, addend: 0x0, symName: __ZNSt3__14pairIKy13zobrist_valueEC1B8ue170006IJRS1_EJEJLm0EEJEEENS_21piecewise_construct_tERNS_5tupleIJDpT_EEERNS7_IJDpT0_EEENS_15__tuple_indicesIJXspT1_EEEENSG_IJXspT2_EEEE, symObjAddr: 0x266F0, symBinAddr: 0x100027050, symSize: 0x60 }
  - { offsetInCU: 0x27701, offset: 0x27701, size: 0x8, addend: 0x0, symName: __ZNSt3__14pairIKy13zobrist_valueEC2B8ue170006IJRS1_EJEJLm0EEJEEENS_21piecewise_construct_tERNS_5tupleIJDpT_EEERNS7_IJDpT0_EEENS_15__tuple_indicesIJXspT1_EEEENSG_IJXspT2_EEEE, symObjAddr: 0x26750, symBinAddr: 0x1000270B0, symSize: 0xE0 }
  - { offsetInCU: 0x27791, offset: 0x27791, size: 0x8, addend: 0x0, symName: __ZNSt3__112__tuple_leafILm0ERKyLb0EE3getB8ue170006Ev, symObjAddr: 0x268E0, symBinAddr: 0x100027240, symSize: 0x90 }
  - { offsetInCU: 0x277B7, offset: 0x277B7, size: 0x8, addend: 0x0, symName: __ZNSt3__117__compressed_pairIPNS_11__hash_nodeINS_17__hash_value_typeIy13zobrist_valueEEPvEENS_22__hash_node_destructorINS_9allocatorIS6_EEEEE6secondB8ue170006Ev, symObjAddr: 0x26970, symBinAddr: 0x1000272D0, symSize: 0xE0 }
  - { offsetInCU: 0x277DD, offset: 0x277DD, size: 0x8, addend: 0x0, symName: __ZNSt3__122__compressed_pair_elemINS_22__hash_node_destructorINS_9allocatorINS_11__hash_nodeINS_17__hash_value_typeIy13zobrist_valueEEPvEEEEEELi1ELb0EE5__getB8ue170006Ev, symObjAddr: 0x26A50, symBinAddr: 0x1000273B0, symSize: 0x80 }
  - { offsetInCU: 0x27803, offset: 0x27803, size: 0x8, addend: 0x0, symName: __ZNSt3__117__compressed_pairImNS_22__unordered_map_hasherIyNS_17__hash_value_typeIy13zobrist_valueEENS_4hashIyEENS_8equal_toIyEELb1EEEE5firstB8ue170006Ev, symObjAddr: 0x26AD0, symBinAddr: 0x100027430, symSize: 0xE0 }
  - { offsetInCU: 0x27829, offset: 0x27829, size: 0x8, addend: 0x0, symName: __ZNSt3__117__compressed_pairIfNS_21__unordered_map_equalIyNS_17__hash_value_typeIy13zobrist_valueEENS_8equal_toIyEENS_4hashIyEELb1EEEE5firstB8ue170006Ev, symObjAddr: 0x26BB0, symBinAddr: 0x100027510, symSize: 0xE0 }
  - { offsetInCU: 0x2784F, offset: 0x2784F, size: 0x8, addend: 0x0, symName: __ZNSt3__122__compressed_pair_elemIfLi0ELb0EE5__getB8ue170006Ev, symObjAddr: 0x26C90, symBinAddr: 0x1000275F0, symSize: 0x80 }
  - { offsetInCU: 0x27875, offset: 0x27875, size: 0x8, addend: 0x0, symName: __ZNSt3__112__hash_tableINS_17__hash_value_typeIy13zobrist_valueEENS_22__unordered_map_hasherIyS3_NS_4hashIyEENS_8equal_toIyEELb1EEENS_21__unordered_map_equalIyS3_S8_S6_Lb1EEENS_9allocatorIS3_EEE8__rehashILb1EEEvm, symObjAddr: 0x26D10, symBinAddr: 0x100027670, symSize: 0x400 }
  - { offsetInCU: 0x278C5, offset: 0x278C5, size: 0x8, addend: 0x0, symName: __ZNSt3__112__hash_tableINS_17__hash_value_typeIy13zobrist_valueEENS_22__unordered_map_hasherIyS3_NS_4hashIyEENS_8equal_toIyEELb1EEENS_21__unordered_map_equalIyS3_S8_S6_Lb1EEENS_9allocatorIS3_EEE11__do_rehashILb1EEEvm, symObjAddr: 0x27110, symBinAddr: 0x100027A70, symSize: 0xB60 }
  - { offsetInCU: 0x279A8, offset: 0x279A8, size: 0x8, addend: 0x0, symName: __ZNSt3__110unique_ptrIA_PNS_16__hash_node_baseIPNS_11__hash_nodeINS_17__hash_value_typeIy13zobrist_valueEEPvEEEENS_25__bucket_list_deallocatorINS_9allocatorISA_EEEEE11get_deleterB8ue170006Ev, symObjAddr: 0x27D30, symBinAddr: 0x100028690, symSize: 0xC0 }
  - { offsetInCU: 0x279CE, offset: 0x279CE, size: 0x8, addend: 0x0, symName: __ZNSt3__110unique_ptrIA_PNS_16__hash_node_baseIPNS_11__hash_nodeINS_17__hash_value_typeIy13zobrist_valueEEPvEEEENS_25__bucket_list_deallocatorINS_9allocatorISA_EEEEE5resetB8ue170006IPSA_EENS_9enable_ifIXsr28_CheckArrayPointerConversionIT_EE5valueEvE4typeESK_, symObjAddr: 0x27DF0, symBinAddr: 0x100028750, symSize: 0x1D0 }
  - { offsetInCU: 0x27A1B, offset: 0x27A1B, size: 0x8, addend: 0x0, symName: __ZNSt3__116allocator_traitsINS_9allocatorIPNS_16__hash_node_baseIPNS_11__hash_nodeINS_17__hash_value_typeIy13zobrist_valueEEPvEEEEEEE8allocateB8ue170006ERSC_m, symObjAddr: 0x27FC0, symBinAddr: 0x100028920, symSize: 0x30 }
  - { offsetInCU: 0x27A4E, offset: 0x27A4E, size: 0x8, addend: 0x0, symName: __ZNSt3__19allocatorIPNS_16__hash_node_baseIPNS_11__hash_nodeINS_17__hash_value_typeIy13zobrist_valueEEPvEEEEE8allocateB8ue170006Em, symObjAddr: 0x27FF0, symBinAddr: 0x100028950, symSize: 0xB0 }
  - { offsetInCU: 0x27A8D, offset: 0x27A8D, size: 0x8, addend: 0x0, symName: __ZNSt3__116allocator_traitsINS_9allocatorIPNS_16__hash_node_baseIPNS_11__hash_nodeINS_17__hash_value_typeIy13zobrist_valueEEPvEEEEEEE8max_sizeB8ue170006ISC_vvEEmRKSC_, symObjAddr: 0x280A0, symBinAddr: 0x100028A00, symSize: 0x50 }
  - { offsetInCU: 0x27AB9, offset: 0x27AB9, size: 0x8, addend: 0x0, symName: __ZNKSt3__117__compressed_pairIPNS_11__hash_nodeINS_17__hash_value_typeIy13zobrist_valueEEPvEENS_22__hash_node_destructorINS_9allocatorIS6_EEEEE5firstB8ue170006Ev, symObjAddr: 0x280F0, symBinAddr: 0x100028A50, symSize: 0xE0 }
  - { offsetInCU: 0x27ADF, offset: 0x27ADF, size: 0x8, addend: 0x0, symName: __ZNKSt3__122__compressed_pair_elemIPNS_11__hash_nodeINS_17__hash_value_typeIy13zobrist_valueEEPvEELi0ELb0EE5__getB8ue170006Ev, symObjAddr: 0x281D0, symBinAddr: 0x100028B30, symSize: 0x80 }
  - { offsetInCU: 0x27B05, offset: 0x27B05, size: 0x8, addend: 0x0, symName: __ZNSt3__117__compressed_pairIPNS_11__hash_nodeINS_17__hash_value_typeIy13zobrist_valueEEPvEENS_22__hash_node_destructorINS_9allocatorIS6_EEEEE5firstB8ue170006Ev, symObjAddr: 0x28250, symBinAddr: 0x100028BB0, symSize: 0xE0 }
  - { offsetInCU: 0x27B2B, offset: 0x27B2B, size: 0x8, addend: 0x0, symName: __ZNSt3__122__compressed_pair_elemIPNS_11__hash_nodeINS_17__hash_value_typeIy13zobrist_valueEEPvEELi0ELb0EE5__getB8ue170006Ev, symObjAddr: 0x28330, symBinAddr: 0x100028C90, symSize: 0x80 }
  - { offsetInCU: 0x27B51, offset: 0x27B51, size: 0x8, addend: 0x0, symName: __ZNSt3__110unique_ptrINS_11__hash_nodeINS_17__hash_value_typeIy13zobrist_valueEEPvEENS_22__hash_node_destructorINS_9allocatorIS6_EEEEED2B8ue170006Ev, symObjAddr: 0x283B0, symBinAddr: 0x100028D10, symSize: 0x60 }
  - { offsetInCU: 0x27B7B, offset: 0x27B7B, size: 0x8, addend: 0x0, symName: __ZNSt3__110unique_ptrINS_11__hash_nodeINS_17__hash_value_typeIy13zobrist_valueEEPvEENS_22__hash_node_destructorINS_9allocatorIS6_EEEEE5resetB8ue170006EPS6_, symObjAddr: 0x28410, symBinAddr: 0x100028D70, symSize: 0x1D0 }
  - { offsetInCU: 0x27BBF, offset: 0x27BBF, size: 0x8, addend: 0x0, symName: __ZNSt3__122__hash_node_destructorINS_9allocatorINS_11__hash_nodeINS_17__hash_value_typeIy13zobrist_valueEEPvEEEEEclB8ue170006EPS7_, symObjAddr: 0x285E0, symBinAddr: 0x100028F40, symSize: 0x190 }
  - { offsetInCU: 0x27BF4, offset: 0x27BF4, size: 0x8, addend: 0x0, symName: __ZNSt3__14pairINS_15__hash_iteratorIPNS_11__hash_nodeINS_17__hash_value_typeIy13zobrist_valueEEPvEEEEbEC2B8ue170006IS9_RbLS6_0EEEOT_OT0_, symObjAddr: 0x28770, symBinAddr: 0x1000290D0, symSize: 0xC0 }
  - { offsetInCU: 0x27C52, offset: 0x27C52, size: 0x8, addend: 0x0, symName: __ZNSt3__15tupleIJRKyEEC1B8ue170006INS_4_AndELi0EEES2_, symObjAddr: 0x28830, symBinAddr: 0x100029190, symSize: 0x60 }
  - { offsetInCU: 0x27C9A, offset: 0x27C9A, size: 0x8, addend: 0x0, symName: __ZNSt3__15tupleIJRKyEEC2B8ue170006INS_4_AndELi0EEES2_, symObjAddr: 0x28890, symBinAddr: 0x1000291F0, symSize: 0x90 }
  - { offsetInCU: 0x27CE2, offset: 0x27CE2, size: 0x8, addend: 0x0, symName: __ZNSt3__112__tuple_implINS_15__tuple_indicesIJLm0EEEEJRKyEEC1B8ue170006IJLm0EEJS4_EJEJEJS4_EEENS1_IJXspT_EEEENS_13__tuple_typesIJDpT0_EEENS1_IJXspT1_EEEENS8_IJDpT2_EEEDpOT3_, symObjAddr: 0x28920, symBinAddr: 0x100029280, symSize: 0x60 }
  - { offsetInCU: 0x27D77, offset: 0x27D77, size: 0x8, addend: 0x0, symName: __ZNSt3__112__tuple_implINS_15__tuple_indicesIJLm0EEEEJRKyEEC2B8ue170006IJLm0EEJS4_EJEJEJS4_EEENS1_IJXspT_EEEENS_13__tuple_typesIJDpT0_EEENS1_IJXspT1_EEEENS8_IJDpT2_EEEDpOT3_, symObjAddr: 0x28980, symBinAddr: 0x1000292E0, symSize: 0xC0 }
  - { offsetInCU: 0x27E0C, offset: 0x27E0C, size: 0x8, addend: 0x0, symName: __ZNSt3__112__tuple_leafILm0ERKyLb0EEC2B8ue170006IS2_vEEOT_, symObjAddr: 0x28A40, symBinAddr: 0x1000293A0, symSize: 0x90 }
  - { offsetInCU: 0x27E4F, offset: 0x27E4F, size: 0x8, addend: 0x0, symName: __ZNSt3__16vectorI4moveNS_9allocatorIS1_EEE7__clearB8ue170006Ev, symObjAddr: 0x28AD0, symBinAddr: 0x100029430, symSize: 0x60 }
  - { offsetInCU: 0x27E75, offset: 0x27E75, size: 0x8, addend: 0x0, symName: __ZNKSt3__16vectorI4moveNS_9allocatorIS1_EEE17__annotate_shrinkB8ue170006Em, symObjAddr: 0x28B30, symBinAddr: 0x100029490, symSize: 0x1D0 }
  - { offsetInCU: 0x27EAA, offset: 0x27EAA, size: 0x8, addend: 0x0, symName: __ZNSt3__16vectorI4moveNS_9allocatorIS1_EEE22__base_destruct_at_endB8ue170006EPS1_, symObjAddr: 0x28D00, symBinAddr: 0x100029660, symSize: 0x110 }
  - { offsetInCU: 0x27EEE, offset: 0x27EEE, size: 0x8, addend: 0x0, symName: __ZNSt3__16vectorI4moveNS_9allocatorIS1_EEE22__construct_one_at_endB8ue170006IJS1_EEEvDpOT_, symObjAddr: 0x28E10, symBinAddr: 0x100029770, symSize: 0x1D0 }
  - { offsetInCU: 0x27F3D, offset: 0x27F3D, size: 0x8, addend: 0x0, symName: __ZNSt3__16vectorI4moveNS_9allocatorIS1_EEE21__push_back_slow_pathIS1_EEvOT_, symObjAddr: 0x28FE0, symBinAddr: 0x100029940, symSize: 0x250 }
  - { offsetInCU: 0x27FB7, offset: 0x27FB7, size: 0x8, addend: 0x0, symName: __ZNSt3__16vectorI4moveNS_9allocatorIS1_EEE21_ConstructTransactionC1B8ue170006ERS4_m, symObjAddr: 0x29230, symBinAddr: 0x100029B90, symSize: 0x60 }
  - { offsetInCU: 0x27FFF, offset: 0x27FFF, size: 0x8, addend: 0x0, symName: __ZNSt3__116allocator_traitsINS_9allocatorI4moveEEE9constructB8ue170006IS2_JS2_EvvEEvRS3_PT_DpOT0_, symObjAddr: 0x29290, symBinAddr: 0x100029BF0, symSize: 0x70 }
  - { offsetInCU: 0x28054, offset: 0x28054, size: 0x8, addend: 0x0, symName: __ZNSt3__16vectorI4moveNS_9allocatorIS1_EEE21_ConstructTransactionD1B8ue170006Ev, symObjAddr: 0x29300, symBinAddr: 0x100029C60, symSize: 0x50 }
  - { offsetInCU: 0x2807E, offset: 0x2807E, size: 0x8, addend: 0x0, symName: __ZNSt3__16vectorI4moveNS_9allocatorIS1_EEE21_ConstructTransactionC2B8ue170006ERS4_m, symObjAddr: 0x29350, symBinAddr: 0x100029CB0, symSize: 0x180 }
  - { offsetInCU: 0x280C6, offset: 0x280C6, size: 0x8, addend: 0x0, symName: __ZNSt3__16vectorI4moveNS_9allocatorIS1_EEE21_ConstructTransactionD2B8ue170006Ev, symObjAddr: 0x29580, symBinAddr: 0x100029EE0, symSize: 0xA0 }
  - { offsetInCU: 0x280F0, offset: 0x280F0, size: 0x8, addend: 0x0, symName: __ZNKSt3__16vectorI4moveNS_9allocatorIS1_EEE11__recommendB8ue170006Em, symObjAddr: 0x29620, symBinAddr: 0x100029F80, symSize: 0x140 }
  - { offsetInCU: 0x28145, offset: 0x28145, size: 0x8, addend: 0x0, symName: __ZNSt3__16vectorI4moveNS_9allocatorIS1_EEE19__copy_assign_allocB8ue170006ERKS4_, symObjAddr: 0x29860, symBinAddr: 0x10002A1C0, symSize: 0x90 }
  - { offsetInCU: 0x2817A, offset: 0x2817A, size: 0x8, addend: 0x0, symName: __ZNSt3__16vectorI4moveNS_9allocatorIS1_EEE6assignIPS1_Li0EEEvT_S7_, symObjAddr: 0x298F0, symBinAddr: 0x10002A250, symSize: 0x80 }
  - { offsetInCU: 0x281CF, offset: 0x281CF, size: 0x8, addend: 0x0, symName: __ZNSt3__16vectorI4moveNS_9allocatorIS1_EEE19__copy_assign_allocB8ue170006ERKS4_NS_17integral_constantIbLb0EEE, symObjAddr: 0x29970, symBinAddr: 0x10002A2D0, symSize: 0x50 }
  - { offsetInCU: 0x2820D, offset: 0x2820D, size: 0x8, addend: 0x0, symName: __ZNSt3__16vectorI4moveNS_9allocatorIS1_EEE18__assign_with_sizeB8ue170006IPS1_S6_EEvT_T0_l, symObjAddr: 0x299C0, symBinAddr: 0x10002A320, symSize: 0x1D0 }
  - { offsetInCU: 0x282BD, offset: 0x282BD, size: 0x8, addend: 0x0, symName: __ZNSt3__16vectorI4moveNS_9allocatorIS1_EEE18__construct_at_endIPS1_S6_EEvT_T0_m, symObjAddr: 0x29C70, symBinAddr: 0x10002A5D0, symSize: 0x180 }
  - { offsetInCU: 0x28333, offset: 0x28333, size: 0x8, addend: 0x0, symName: __ZNSt3__16vectorI4moveNS_9allocatorIS1_EEE17__destruct_at_endB8ue170006EPS1_, symObjAddr: 0x29E40, symBinAddr: 0x10002A7A0, symSize: 0x80 }
  - { offsetInCU: 0x28377, offset: 0x28377, size: 0x8, addend: 0x0, symName: __ZNSt3__16vectorI4moveNS_9allocatorIS1_EEE13__vdeallocateEv, symObjAddr: 0x29EC0, symBinAddr: 0x10002A820, symSize: 0x110 }
  - { offsetInCU: 0x2839F, offset: 0x2839F, size: 0x8, addend: 0x0, symName: __ZNSt3__16vectorI4moveNS_9allocatorIS1_EEE11__vallocateB8ue170006Em, symObjAddr: 0x29FD0, symBinAddr: 0x10002A930, symSize: 0x1D0 }
  - { offsetInCU: 0x28406, offset: 0x28406, size: 0x8, addend: 0x0, symName: __ZNSt3__119__unwrap_range_implIP4moveS2_E8__unwrapB8ue170006ES2_S2_, symObjAddr: 0x2A490, symBinAddr: 0x10002ADF0, symSize: 0x60 }
  - { offsetInCU: 0x28437, offset: 0x28437, size: 0x8, addend: 0x0, symName: __ZNSt3__14pairIP4moveS2_EC1B8ue170006IS2_S2_LPv0EEEOT_OT0_, symObjAddr: 0x2A4F0, symBinAddr: 0x10002AE50, symSize: 0x60 }
  - { offsetInCU: 0x28495, offset: 0x28495, size: 0x8, addend: 0x0, symName: __ZNSt3__14pairIP4moveS2_EC2B8ue170006IS2_S2_LPv0EEEOT_OT0_, symObjAddr: 0x2A550, symBinAddr: 0x10002AEB0, symSize: 0xE0 }
  - { offsetInCU: 0x284F3, offset: 0x284F3, size: 0x8, addend: 0x0, symName: __ZNSt3__118__unwrap_iter_implIP4moveLb1EE8__unwrapB8ue170006ES2_, symObjAddr: 0x2A630, symBinAddr: 0x10002AF90, symSize: 0x30 }
  - { offsetInCU: 0x28516, offset: 0x28516, size: 0x8, addend: 0x0, symName: __ZNSt3__118__unwrap_iter_implIP4moveLb1EE8__rewrapB8ue170006ES2_S2_, symObjAddr: 0x2A660, symBinAddr: 0x10002AFC0, symSize: 0xC0 }
  - { offsetInCU: 0x28552, offset: 0x28552, size: 0x8, addend: 0x0, symName: __ZNKSt3__114__copy_trivialclB8ue170006I4moveS2_Li0EEENS_4pairIPT_PT0_EES5_S5_S7_, symObjAddr: 0x2A8B0, symBinAddr: 0x10002B210, symSize: 0x70 }
  - { offsetInCU: 0x285BA, offset: 0x285BA, size: 0x8, addend: 0x0, symName: __ZNSt3__14pairIP4moveS2_EC1B8ue170006IRS2_S2_LPv0EEEOT_OT0_, symObjAddr: 0x2ABD0, symBinAddr: 0x10002B530, symSize: 0x60 }
  - { offsetInCU: 0x28618, offset: 0x28618, size: 0x8, addend: 0x0, symName: __ZNSt3__14pairIP4moveS2_EC2B8ue170006IRS2_S2_LPv0EEEOT_OT0_, symObjAddr: 0x2AC30, symBinAddr: 0x10002B590, symSize: 0xE0 }
  - { offsetInCU: 0x28676, offset: 0x28676, size: 0x8, addend: 0x0, symName: __ZNSt3__119__unwrap_range_implIP4moveS2_E8__rewrapB8ue170006ES2_S2_, symObjAddr: 0x2AD10, symBinAddr: 0x10002B670, symSize: 0x30 }
  - { offsetInCU: 0x286A7, offset: 0x286A7, size: 0x8, addend: 0x0, symName: __ZNSt3__16vectorI4moveNS_9allocatorIS1_EEED2B8ue170006Ev, symObjAddr: 0x2AD70, symBinAddr: 0x10002B6D0, symSize: 0xA0 }
  - { offsetInCU: 0x286D1, offset: 0x286D1, size: 0x8, addend: 0x0, symName: __ZNSt3__16vectorI4moveNS_9allocatorIS1_EEE16__destroy_vectorC1B8ue170006ERS4_, symObjAddr: 0x2AE10, symBinAddr: 0x10002B770, symSize: 0x60 }
  - { offsetInCU: 0x2870A, offset: 0x2870A, size: 0x8, addend: 0x0, symName: __ZNSt3__16vectorI4moveNS_9allocatorIS1_EEE16__destroy_vectorclB8ue170006Ev, symObjAddr: 0x2AE70, symBinAddr: 0x10002B7D0, symSize: 0x200 }
  - { offsetInCU: 0x28730, offset: 0x28730, size: 0x8, addend: 0x0, symName: __ZNSt3__16vectorI4moveNS_9allocatorIS1_EEE16__destroy_vectorC2B8ue170006ERS4_, symObjAddr: 0x2B070, symBinAddr: 0x10002B9D0, symSize: 0x90 }
  - { offsetInCU: 0x28769, offset: 0x28769, size: 0x8, addend: 0x0, symName: __ZNSt3__18optionalIaEaSB8ue170006ENS_9nullopt_tE, symObjAddr: 0x2B100, symBinAddr: 0x10002BA60, symSize: 0x60 }
  - { offsetInCU: 0x2879A, offset: 0x2879A, size: 0x8, addend: 0x0, symName: __Zeq9board_posS_, symObjAddr: 0x2B160, symBinAddr: 0x10002BAC0, symSize: 0xB0 }
  - { offsetInCU: 0x287D5, offset: 0x287D5, size: 0x8, addend: 0x0, symName: __ZNSt3__18optionalIaEaSB8ue170006IRivEERS1_OT_, symObjAddr: 0x2B210, symBinAddr: 0x10002BB70, symSize: 0x130 }
  - { offsetInCU: 0x28814, offset: 0x28814, size: 0x8, addend: 0x0, symName: __ZNSt3__18optionalI5pieceEaSB8ue170006ENS_9nullopt_tE, symObjAddr: 0x2B340, symBinAddr: 0x10002BCA0, symSize: 0x60 }
  - { offsetInCU: 0x28888, offset: 0x28888, size: 0x8, addend: 0x0, symName: __ZNKSt3__15arrayINS0_IiLm2EEELm4EE4sizeB8ue170006Ev, symObjAddr: 0x2B3A0, symBinAddr: 0x10002BD00, symSize: 0x50 }
  - { offsetInCU: 0x288E2, offset: 0x288E2, size: 0x8, addend: 0x0, symName: __ZNKSt3__15arrayI9board_posLm4EEixB8ue170006Em, symObjAddr: 0x2B3F0, symBinAddr: 0x10002BD50, symSize: 0x100 }
  - { offsetInCU: 0x28916, offset: 0x28916, size: 0x8, addend: 0x0, symName: __ZNKSt3__15arrayINS0_IiLm2EEELm4EEixB8ue170006Em, symObjAddr: 0x2B4F0, symBinAddr: 0x10002BE50, symSize: 0x100 }
  - { offsetInCU: 0x2894A, offset: 0x2894A, size: 0x8, addend: 0x0, symName: __ZNKSt3__15arrayIiLm2EEixB8ue170006Em, symObjAddr: 0x2B5F0, symBinAddr: 0x10002BF50, symSize: 0x100 }
  - { offsetInCU: 0x2897E, offset: 0x2897E, size: 0x8, addend: 0x0, symName: __ZNSt3__18optionalI5pieceEaSB8ue170006IRS1_vEERS2_OT_, symObjAddr: 0x2B6F0, symBinAddr: 0x10002C050, symSize: 0xC0 }
  - { offsetInCU: 0x289BD, offset: 0x289BD, size: 0x8, addend: 0x0, symName: __ZNSt3__124__optional_destruct_baseIaLb1EE5resetB8ue170006Ev, symObjAddr: 0x2B7B0, symBinAddr: 0x10002C110, symSize: 0x70 }
  - { offsetInCU: 0x289E3, offset: 0x289E3, size: 0x8, addend: 0x0, symName: __ZNSt3__123__optional_storage_baseIaLb0EE11__constructB8ue170006IJRiEEEvDpOT_, symObjAddr: 0x2B820, symBinAddr: 0x10002C180, symSize: 0x90 }
  - { offsetInCU: 0x28A23, offset: 0x28A23, size: 0x8, addend: 0x0, symName: __ZNSt3__124__optional_destruct_baseI5pieceLb1EE5resetB8ue170006Ev, symObjAddr: 0x2B960, symBinAddr: 0x10002C2C0, symSize: 0x70 }
  - { offsetInCU: 0x28A49, offset: 0x28A49, size: 0x8, addend: 0x0, symName: __ZNSt3__123__optional_storage_baseI5pieceLb0EE11__constructB8ue170006IJRS1_EEEvDpOT_, symObjAddr: 0x2B9D0, symBinAddr: 0x10002C330, symSize: 0x70 }
  - { offsetInCU: 0x28A89, offset: 0x28A89, size: 0x8, addend: 0x0, symName: __ZNKSt3__16chrono8durationIxNS_5ratioILl1ELl1000000000EEEE5countB8ue170006Ev, symObjAddr: 0x2BB90, symBinAddr: 0x10002C4F0, symSize: 0x50 }
  - { offsetInCU: 0x28AC0, offset: 0x28AC0, size: 0x8, addend: 0x0, symName: __ZNSt3__16chrono8durationIxNS_5ratioILl1ELl1000EEEEC1B8ue170006IxEERKT_PNS_9enable_ifIXaasr14is_convertibleIS8_xEE5valueooL_ZNS_17integral_constantIbLb0EE5valueEEntsr23treat_as_floating_pointIS6_EE5valueEvE4typeE, symObjAddr: 0x2BBE0, symBinAddr: 0x10002C540, symSize: 0x60 }
  - { offsetInCU: 0x28B0D, offset: 0x28B0D, size: 0x8, addend: 0x0, symName: __ZNSt3__16chrono8durationIxNS_5ratioILl1ELl1000EEEEC2B8ue170006IxEERKT_PNS_9enable_ifIXaasr14is_convertibleIS8_xEE5valueooL_ZNS_17integral_constantIbLb0EE5valueEEntsr23treat_as_floating_pointIS6_EE5valueEvE4typeE, symObjAddr: 0x2BC40, symBinAddr: 0x10002C5A0, symSize: 0x60 }
  - { offsetInCU: 0x28B5A, offset: 0x28B5A, size: 0x8, addend: 0x0, symName: __ZNKSt3__16chrono10time_pointINS0_12steady_clockENS0_8durationIxNS_5ratioILl1ELl1000000000EEEEEE16time_since_epochB8ue170006Ev, symObjAddr: 0x2BD40, symBinAddr: 0x10002C6A0, symSize: 0x60 }
  - { offsetInCU: 0x28B80, offset: 0x28B80, size: 0x8, addend: 0x0, symName: __ZNSt3__16chrono8durationIxNS_5ratioILl1ELl1000000000EEEEC1B8ue170006IxEERKT_PNS_9enable_ifIXaasr14is_convertibleIS8_xEE5valueooL_ZNS_17integral_constantIbLb0EE5valueEEntsr23treat_as_floating_pointIS6_EE5valueEvE4typeE, symObjAddr: 0x2BDA0, symBinAddr: 0x10002C700, symSize: 0x60 }
  - { offsetInCU: 0x28BCD, offset: 0x28BCD, size: 0x8, addend: 0x0, symName: __ZNSt3__16chrono8durationIxNS_5ratioILl1ELl1000000000EEEEC2B8ue170006IxEERKT_PNS_9enable_ifIXaasr14is_convertibleIS8_xEE5valueooL_ZNS_17integral_constantIbLb0EE5valueEEntsr23treat_as_floating_pointIS6_EE5valueEvE4typeE, symObjAddr: 0x2BE00, symBinAddr: 0x10002C760, symSize: 0x60 }
  - { offsetInCU: 0x28C1A, offset: 0x28C1A, size: 0x8, addend: 0x0, symName: __ZNSt3__124__optional_destruct_baseI9board_posLb1EE5resetB8ue170006Ev, symObjAddr: 0x2BE60, symBinAddr: 0x10002C7C0, symSize: 0x90 }
  - { offsetInCU: 0x28C40, offset: 0x28C40, size: 0x8, addend: 0x0, symName: __ZNSt3__16vectorI14position_timesNS_9allocatorIS1_EEE17__destruct_at_endB8ue170006EPS1_, symObjAddr: 0x2BEF0, symBinAddr: 0x10002C850, symSize: 0x80 }
  - { offsetInCU: 0x28C84, offset: 0x28C84, size: 0x8, addend: 0x0, symName: __ZNSt3__16vectorI14position_timesNS_9allocatorIS1_EEE22__base_destruct_at_endB8ue170006EPS1_, symObjAddr: 0x2BF70, symBinAddr: 0x10002C8D0, symSize: 0x120 }
  - { offsetInCU: 0x28CC8, offset: 0x28CC8, size: 0x8, addend: 0x0, symName: __ZNKSt3__16vectorI14position_timesNS_9allocatorIS1_EEE17__annotate_shrinkB8ue170006Em, symObjAddr: 0x2C090, symBinAddr: 0x10002C9F0, symSize: 0x1C0 }
  - { offsetInCU: 0x28CFD, offset: 0x28CFD, size: 0x8, addend: 0x0, symName: __ZNSt3__116allocator_traitsINS_9allocatorI14position_timesEEE7destroyB8ue170006IS2_vvEEvRS3_PT_, symObjAddr: 0x2C250, symBinAddr: 0x10002CBB0, symSize: 0x30 }
  - { offsetInCU: 0x28D38, offset: 0x28D38, size: 0x8, addend: 0x0, symName: __ZNSt3__16vectorI14position_timesNS_9allocatorIS1_EEE7__allocB8ue170006Ev, symObjAddr: 0x2C280, symBinAddr: 0x10002CBE0, symSize: 0xB0 }
  - { offsetInCU: 0x28D5E, offset: 0x28D5E, size: 0x8, addend: 0x0, symName: __ZNSt3__117__compressed_pairIP14position_timesNS_9allocatorIS1_EEE6secondB8ue170006Ev, symObjAddr: 0x2C3A0, symBinAddr: 0x10002CD00, symSize: 0xD0 }
  - { offsetInCU: 0x28D84, offset: 0x28D84, size: 0x8, addend: 0x0, symName: __ZNSt3__122__compressed_pair_elemINS_9allocatorI14position_timesEELi1ELb1EE5__getB8ue170006Ev, symObjAddr: 0x2C470, symBinAddr: 0x10002CDD0, symSize: 0x60 }
  - { offsetInCU: 0x28DAA, offset: 0x28DAA, size: 0x8, addend: 0x0, symName: __ZNKSt3__16vectorI14position_timesNS_9allocatorIS1_EEE31__annotate_contiguous_containerB8ue170006EPKvS6_S6_S6_, symObjAddr: 0x2C4D0, symBinAddr: 0x10002CE30, symSize: 0x60 }
  - { offsetInCU: 0x28E00, offset: 0x28E00, size: 0x8, addend: 0x0, symName: __ZNKSt3__16vectorI14position_timesNS_9allocatorIS1_EEE4dataB8ue170006Ev, symObjAddr: 0x2C530, symBinAddr: 0x10002CE90, symSize: 0x60 }
  - { offsetInCU: 0x28E26, offset: 0x28E26, size: 0x8, addend: 0x0, symName: __ZNKSt3__16vectorI14position_timesNS_9allocatorIS1_EEE8capacityB8ue170006Ev, symObjAddr: 0x2C590, symBinAddr: 0x10002CEF0, symSize: 0xA0 }
  - { offsetInCU: 0x28E4C, offset: 0x28E4C, size: 0x8, addend: 0x0, symName: __ZNKSt3__16vectorI14position_timesNS_9allocatorIS1_EEE9__end_capB8ue170006Ev, symObjAddr: 0x2C630, symBinAddr: 0x10002CF90, symSize: 0xC0 }
  - { offsetInCU: 0x28E72, offset: 0x28E72, size: 0x8, addend: 0x0, symName: __ZNKSt3__117__compressed_pairIP14position_timesNS_9allocatorIS1_EEE5firstB8ue170006Ev, symObjAddr: 0x2C6F0, symBinAddr: 0x10002D050, symSize: 0xE0 }
  - { offsetInCU: 0x28E98, offset: 0x28E98, size: 0x8, addend: 0x0, symName: __ZNKSt3__122__compressed_pair_elemIP14position_timesLi0ELb0EE5__getB8ue170006Ev, symObjAddr: 0x2C7D0, symBinAddr: 0x10002D130, symSize: 0x80 }
  - { offsetInCU: 0x28EBE, offset: 0x28EBE, size: 0x8, addend: 0x0, symName: __ZNSt3__15mutexC2B8ue170006Ev, symObjAddr: 0x2C8E0, symBinAddr: 0x10002D240, symSize: 0x70 }
  - { offsetInCU: 0x28EE8, offset: 0x28EE8, size: 0x8, addend: 0x0, symName: __ZNSt3__16atomicIbEC2B8ue170006Ev, symObjAddr: 0x2C950, symBinAddr: 0x10002D2B0, symSize: 0x60 }
  - { offsetInCU: 0x28F12, offset: 0x28F12, size: 0x8, addend: 0x0, symName: __ZNSt3__113__atomic_baseIbLb0EEC2B8ue170006Ev, symObjAddr: 0x2C9B0, symBinAddr: 0x10002D310, symSize: 0x40 }
  - { offsetInCU: 0x28F3C, offset: 0x28F3C, size: 0x8, addend: 0x0, symName: __ZNSt3__117__cxx_atomic_implIbNS_22__cxx_atomic_base_implIbEEEC1B8ue170006Eb, symObjAddr: 0x2C9F0, symBinAddr: 0x10002D350, symSize: 0x80 }
  - { offsetInCU: 0x28F75, offset: 0x28F75, size: 0x8, addend: 0x0, symName: __ZNSt3__117__cxx_atomic_implIbNS_22__cxx_atomic_base_implIbEEEC2B8ue170006Eb, symObjAddr: 0x2CA70, symBinAddr: 0x10002D3D0, symSize: 0xA0 }
  - { offsetInCU: 0x28FAE, offset: 0x28FAE, size: 0x8, addend: 0x0, symName: __ZNSt3__122__cxx_atomic_base_implIbEC2Eb, symObjAddr: 0x2CB10, symBinAddr: 0x10002D470, symSize: 0x70 }
  - { offsetInCU: 0x28FE7, offset: 0x28FE7, size: 0x8, addend: 0x0, symName: __ZNSt3__16vectorI14position_timesNS_9allocatorIS1_EEEC2B8ue170006Ev, symObjAddr: 0x2CB80, symBinAddr: 0x10002D4E0, symSize: 0x80 }
  - { offsetInCU: 0x29011, offset: 0x29011, size: 0x8, addend: 0x0, symName: __ZNSt3__117__compressed_pairIP14position_timesNS_9allocatorIS1_EEEC1B8ue170006IDnNS_18__default_init_tagEEEOT_OT0_, symObjAddr: 0x2CC00, symBinAddr: 0x10002D560, symSize: 0x60 }
  - { offsetInCU: 0x29069, offset: 0x29069, size: 0x8, addend: 0x0, symName: __ZNSt3__117__compressed_pairIP14position_timesNS_9allocatorIS1_EEEC2B8ue170006IDnNS_18__default_init_tagEEEOT_OT0_, symObjAddr: 0x2CC60, symBinAddr: 0x10002D5C0, symSize: 0xF0 }
  - { offsetInCU: 0x290C1, offset: 0x290C1, size: 0x8, addend: 0x0, symName: __ZNSt3__122__compressed_pair_elemIP14position_timesLi0ELb0EEC2B8ue170006IDnvEEOT_, symObjAddr: 0x2CD50, symBinAddr: 0x10002D6B0, symSize: 0x60 }
  - { offsetInCU: 0x29103, offset: 0x29103, size: 0x8, addend: 0x0, symName: __ZNSt3__122__compressed_pair_elemINS_9allocatorI14position_timesEELi1ELb1EEC2B8ue170006ENS_18__default_init_tagE, symObjAddr: 0x2CDB0, symBinAddr: 0x10002D710, symSize: 0x60 }
  - { offsetInCU: 0x29138, offset: 0x29138, size: 0x8, addend: 0x0, symName: __ZNSt3__19allocatorI14position_timesEC2B8ue170006Ev, symObjAddr: 0x2CE10, symBinAddr: 0x10002D770, symSize: 0x60 }
  - { offsetInCU: 0x29162, offset: 0x29162, size: 0x8, addend: 0x0, symName: __ZNSt3__116__non_trivial_ifILb1ENS_9allocatorI14position_timesEEEC2B8ue170006Ev, symObjAddr: 0x2CE70, symBinAddr: 0x10002D7D0, symSize: 0x40 }
  - { offsetInCU: 0x2918C, offset: 0x2918C, size: 0x8, addend: 0x0, symName: __ZNSt3__16threadC2B8ue170006Ev, symObjAddr: 0x2CEB0, symBinAddr: 0x10002D810, symSize: 0x60 }
  - { offsetInCU: 0x291B6, offset: 0x291B6, size: 0x8, addend: 0x0, symName: __ZN8BitboardC2Ev, symObjAddr: 0x2CF10, symBinAddr: 0x10002D870, symSize: 0x60 }
  - { offsetInCU: 0x291E2, offset: 0x291E2, size: 0x8, addend: 0x0, symName: __ZNSt3__18optionalI9board_posEC2B8ue170006Ev, symObjAddr: 0x2CF70, symBinAddr: 0x10002D8D0, symSize: 0x80 }
  - { offsetInCU: 0x2920C, offset: 0x2920C, size: 0x8, addend: 0x0, symName: __ZN6CanvasC2EP12SDL_RendererP11SDL_TextureS3_, symObjAddr: 0x2CFF0, symBinAddr: 0x10002D950, symSize: 0x130 }
  - { offsetInCU: 0x29260, offset: 0x29260, size: 0x8, addend: 0x0, symName: __ZNSt3__16chrono8durationIxNS_5ratioILl1ELl1EEEEC1B8ue170006IxEERKT_PNS_9enable_ifIXaasr14is_convertibleIS8_xEE5valueooL_ZNS_17integral_constantIbLb0EE5valueEEntsr23treat_as_floating_pointIS6_EE5valueEvE4typeE, symObjAddr: 0x2D1F0, symBinAddr: 0x10002DB50, symSize: 0x60 }
  - { offsetInCU: 0x292AD, offset: 0x292AD, size: 0x8, addend: 0x0, symName: __ZNSt3__16chrono8durationIxNS_5ratioILl1ELl1EEEEC2B8ue170006IxEERKT_PNS_9enable_ifIXaasr14is_convertibleIS8_xEE5valueooL_ZNS_17integral_constantIbLb0EE5valueEEntsr23treat_as_floating_pointIS6_EE5valueEvE4typeE, symObjAddr: 0x2D250, symBinAddr: 0x10002DBB0, symSize: 0x60 }
  - { offsetInCU: 0x292FA, offset: 0x292FA, size: 0x8, addend: 0x0, symName: __ZNSt3__123__optional_storage_baseI9board_posLb0EE11__constructB8ue170006IJRS1_EEEvDpOT_, symObjAddr: 0x2D2B0, symBinAddr: 0x10002DC10, symSize: 0xE0 }
  - { offsetInCU: 0x2933A, offset: 0x2933A, size: 0x8, addend: 0x0, symName: __ZNK10PieceMoves10king_movesE9board_pos, symObjAddr: 0x2D430, symBinAddr: 0x10002DD90, symSize: 0x1080 }
  - { offsetInCU: 0x29432, offset: 0x29432, size: 0x8, addend: 0x0, symName: __ZNK10PieceMoves11queen_movesE9board_pos, symObjAddr: 0x2E4B0, symBinAddr: 0x10002EE10, symSize: 0x80 }
  - { offsetInCU: 0x29466, offset: 0x29466, size: 0x8, addend: 0x0, symName: __ZNK10PieceMoves12bishop_movesE9board_pos, symObjAddr: 0x2E530, symBinAddr: 0x10002EE90, symSize: 0x710 }
  - { offsetInCU: 0x29532, offset: 0x29532, size: 0x8, addend: 0x0, symName: __ZNK10PieceMoves12knight_movesE9board_pos, symObjAddr: 0x2EC40, symBinAddr: 0x10002F5A0, symSize: 0x630 }
  - { offsetInCU: 0x295F0, offset: 0x295F0, size: 0x8, addend: 0x0, symName: __ZNK10PieceMoves10rook_movesE9board_pos, symObjAddr: 0x2F270, symBinAddr: 0x10002FBD0, symSize: 0x710 }
  - { offsetInCU: 0x296BC, offset: 0x296BC, size: 0x8, addend: 0x0, symName: __ZNK10PieceMoves10pawn_movesE9board_pos, symObjAddr: 0x2F980, symBinAddr: 0x1000302E0, symSize: 0x16B0 }
  - { offsetInCU: 0x29761, offset: 0x29761, size: 0x8, addend: 0x0, symName: __ZN8Bitboard3setE9board_pos, symObjAddr: 0x31060, symBinAddr: 0x1000319C0, symSize: 0x1D0 }
  - { offsetInCU: 0x29795, offset: 0x29795, size: 0x8, addend: 0x0, symName: __ZNKSt3__18optionalI5pieceEcvbB8ue170006Ev, symObjAddr: 0x312D0, symBinAddr: 0x100031C30, symSize: 0x50 }
  - { offsetInCU: 0x297BA, offset: 0x297BA, size: 0x8, addend: 0x0, symName: __Zeq5pieceS_, symObjAddr: 0x31320, symBinAddr: 0x100031C80, symSize: 0xA0 }
  - { offsetInCU: 0x297EF, offset: 0x297EF, size: 0x8, addend: 0x0, symName: __ZNKRSt3__18optionalI5pieceEdeB8ue170006Ev, symObjAddr: 0x313C0, symBinAddr: 0x100031D20, symSize: 0x60 }
  - { offsetInCU: 0x29814, offset: 0x29814, size: 0x8, addend: 0x0, symName: __Zor8BitboardS_, symObjAddr: 0x31420, symBinAddr: 0x100031D80, symSize: 0x30 }
  - { offsetInCU: 0x2984F, offset: 0x2984F, size: 0x8, addend: 0x0, symName: __ZNKSt3__18optionalIaEcvbB8ue170006Ev, symObjAddr: 0x31500, symBinAddr: 0x100031E60, symSize: 0x50 }
  - { offsetInCU: 0x29875, offset: 0x29875, size: 0x8, addend: 0x0, symName: __ZNKRSt3__18optionalIaEdeB8ue170006Ev, symObjAddr: 0x31550, symBinAddr: 0x100031EB0, symSize: 0x60 }
  - { offsetInCU: 0x2989B, offset: 0x2989B, size: 0x8, addend: 0x0, symName: __ZNSt3__16vectorI14position_timesNS_9allocatorIS1_EEE9__end_capB8ue170006Ev, symObjAddr: 0x315E0, symBinAddr: 0x100031F40, symSize: 0xC0 }
  - { offsetInCU: 0x298C7, offset: 0x298C7, size: 0x8, addend: 0x0, symName: __ZNSt3__16vectorI14position_timesNS_9allocatorIS1_EEE22__construct_one_at_endB8ue170006IJS1_EEEvDpOT_, symObjAddr: 0x316A0, symBinAddr: 0x100032000, symSize: 0x1D0 }
  - { offsetInCU: 0x29916, offset: 0x29916, size: 0x8, addend: 0x0, symName: __ZNSt3__16vectorI14position_timesNS_9allocatorIS1_EEE21__push_back_slow_pathIS1_EEvOT_, symObjAddr: 0x31870, symBinAddr: 0x1000321D0, symSize: 0x260 }
  - { offsetInCU: 0x29974, offset: 0x29974, size: 0x8, addend: 0x0, symName: __ZNSt3__117__compressed_pairIP14position_timesNS_9allocatorIS1_EEE5firstB8ue170006Ev, symObjAddr: 0x31AD0, symBinAddr: 0x100032430, symSize: 0xE0 }
  - { offsetInCU: 0x2999A, offset: 0x2999A, size: 0x8, addend: 0x0, symName: __ZNSt3__122__compressed_pair_elemIP14position_timesLi0ELb0EE5__getB8ue170006Ev, symObjAddr: 0x31BB0, symBinAddr: 0x100032510, symSize: 0x80 }
  - { offsetInCU: 0x299DC, offset: 0x299DC, size: 0x8, addend: 0x0, symName: __ZNSt3__16vectorI14position_timesNS_9allocatorIS1_EEE21_ConstructTransactionC1B8ue170006ERS4_m, symObjAddr: 0x31C30, symBinAddr: 0x100032590, symSize: 0x60 }
  - { offsetInCU: 0x29A24, offset: 0x29A24, size: 0x8, addend: 0x0, symName: __ZNSt3__116allocator_traitsINS_9allocatorI14position_timesEEE9constructB8ue170006IS2_JS2_EvvEEvRS3_PT_DpOT0_, symObjAddr: 0x31C90, symBinAddr: 0x1000325F0, symSize: 0x70 }
  - { offsetInCU: 0x29A79, offset: 0x29A79, size: 0x8, addend: 0x0, symName: __ZNSt3__16vectorI14position_timesNS_9allocatorIS1_EEE21_ConstructTransactionD1B8ue170006Ev, symObjAddr: 0x31D00, symBinAddr: 0x100032660, symSize: 0x50 }
  - { offsetInCU: 0x29AA3, offset: 0x29AA3, size: 0x8, addend: 0x0, symName: __ZNSt3__16vectorI14position_timesNS_9allocatorIS1_EEE21_ConstructTransactionC2B8ue170006ERS4_m, symObjAddr: 0x31D50, symBinAddr: 0x1000326B0, symSize: 0x170 }
  - { offsetInCU: 0x29AEB, offset: 0x29AEB, size: 0x8, addend: 0x0, symName: __ZNSt3__16vectorI14position_timesNS_9allocatorIS1_EEE21_ConstructTransactionD2B8ue170006Ev, symObjAddr: 0x31F70, symBinAddr: 0x1000328D0, symSize: 0xA0 }
  - { offsetInCU: 0x29B15, offset: 0x29B15, size: 0x8, addend: 0x0, symName: __ZNKSt3__16vectorI14position_timesNS_9allocatorIS1_EEE11__recommendB8ue170006Em, symObjAddr: 0x32010, symBinAddr: 0x100032970, symSize: 0x140 }
  - { offsetInCU: 0x29B6A, offset: 0x29B6A, size: 0x8, addend: 0x0, symName: __ZNSt3__114__split_bufferI14position_timesRNS_9allocatorIS1_EEEC1EmmS4_, symObjAddr: 0x32150, symBinAddr: 0x100032AB0, symSize: 0x70 }
  - { offsetInCU: 0x29BC0, offset: 0x29BC0, size: 0x8, addend: 0x0, symName: __ZNSt3__114__split_bufferI14position_timesRNS_9allocatorIS1_EEED1Ev, symObjAddr: 0x32570, symBinAddr: 0x100032ED0, symSize: 0x50 }
  - { offsetInCU: 0x29BEC, offset: 0x29BEC, size: 0x8, addend: 0x0, symName: __ZNKSt3__16vectorI14position_timesNS_9allocatorIS1_EEE8max_sizeEv, symObjAddr: 0x325C0, symBinAddr: 0x100032F20, symSize: 0xE0 }
  - { offsetInCU: 0x29C14, offset: 0x29C14, size: 0x8, addend: 0x0, symName: __ZNKSt3__16vectorI14position_timesNS_9allocatorIS1_EEE20__throw_length_errorB8ue170006Ev, symObjAddr: 0x326A0, symBinAddr: 0x100033000, symSize: 0x70 }
  - { offsetInCU: 0x29C45, offset: 0x29C45, size: 0x8, addend: 0x0, symName: __ZNSt3__116allocator_traitsINS_9allocatorI14position_timesEEE8max_sizeB8ue170006IS3_vvEEmRKS3_, symObjAddr: 0x32710, symBinAddr: 0x100033070, symSize: 0x50 }
  - { offsetInCU: 0x29C71, offset: 0x29C71, size: 0x8, addend: 0x0, symName: __ZNKSt3__16vectorI14position_timesNS_9allocatorIS1_EEE7__allocB8ue170006Ev, symObjAddr: 0x32760, symBinAddr: 0x1000330C0, symSize: 0xB0 }
  - { offsetInCU: 0x29C97, offset: 0x29C97, size: 0x8, addend: 0x0, symName: __ZNKSt3__117__compressed_pairIP14position_timesNS_9allocatorIS1_EEE6secondB8ue170006Ev, symObjAddr: 0x32810, symBinAddr: 0x100033170, symSize: 0xD0 }
  - { offsetInCU: 0x29CBD, offset: 0x29CBD, size: 0x8, addend: 0x0, symName: __ZNKSt3__122__compressed_pair_elemINS_9allocatorI14position_timesEELi1ELb1EE5__getB8ue170006Ev, symObjAddr: 0x328E0, symBinAddr: 0x100033240, symSize: 0x60 }
  - { offsetInCU: 0x29CE3, offset: 0x29CE3, size: 0x8, addend: 0x0, symName: __ZNSt3__114__split_bufferI14position_timesRNS_9allocatorIS1_EEEC2EmmS4_, symObjAddr: 0x32940, symBinAddr: 0x1000332A0, symSize: 0x270 }
  - { offsetInCU: 0x29D56, offset: 0x29D56, size: 0x8, addend: 0x0, symName: __ZNSt3__117__compressed_pairIP14position_timesRNS_9allocatorIS1_EEEC1B8ue170006IDnS5_EEOT_OT0_, symObjAddr: 0x32BB0, symBinAddr: 0x100033510, symSize: 0x60 }
  - { offsetInCU: 0x29DAE, offset: 0x29DAE, size: 0x8, addend: 0x0, symName: __ZNSt3__114__split_bufferI14position_timesRNS_9allocatorIS1_EEE7__allocB8ue170006Ev, symObjAddr: 0x32C70, symBinAddr: 0x1000335D0, symSize: 0xB0 }
  - { offsetInCU: 0x29DD4, offset: 0x29DD4, size: 0x8, addend: 0x0, symName: __ZNSt3__114__split_bufferI14position_timesRNS_9allocatorIS1_EEE9__end_capB8ue170006Ev, symObjAddr: 0x32D20, symBinAddr: 0x100033680, symSize: 0xC0 }
  - { offsetInCU: 0x29DFA, offset: 0x29DFA, size: 0x8, addend: 0x0, symName: __ZNSt3__117__compressed_pairIP14position_timesRNS_9allocatorIS1_EEEC2B8ue170006IDnS5_EEOT_OT0_, symObjAddr: 0x32DE0, symBinAddr: 0x100033740, symSize: 0x130 }
  - { offsetInCU: 0x29E52, offset: 0x29E52, size: 0x8, addend: 0x0, symName: __ZNSt3__122__compressed_pair_elemIRNS_9allocatorI14position_timesEELi1ELb0EEC2B8ue170006IS4_vEEOT_, symObjAddr: 0x32F10, symBinAddr: 0x100033870, symSize: 0x80 }
  - { offsetInCU: 0x29E94, offset: 0x29E94, size: 0x8, addend: 0x0, symName: __ZNSt3__19allocatorI14position_timesE17allocate_at_leastB8ue170006Em, symObjAddr: 0x32FD0, symBinAddr: 0x100033930, symSize: 0x60 }
  - { offsetInCU: 0x29EC8, offset: 0x29EC8, size: 0x8, addend: 0x0, symName: __ZNSt3__19allocatorI14position_timesE8allocateB8ue170006Em, symObjAddr: 0x33030, symBinAddr: 0x100033990, symSize: 0xB0 }
  - { offsetInCU: 0x29EFC, offset: 0x29EFC, size: 0x8, addend: 0x0, symName: __ZNSt3__117__compressed_pairIP14position_timesRNS_9allocatorIS1_EEE6secondB8ue170006Ev, symObjAddr: 0x330E0, symBinAddr: 0x100033A40, symSize: 0xD0 }
  - { offsetInCU: 0x29F22, offset: 0x29F22, size: 0x8, addend: 0x0, symName: __ZNSt3__122__compressed_pair_elemIRNS_9allocatorI14position_timesEELi1ELb0EE5__getB8ue170006Ev, symObjAddr: 0x331B0, symBinAddr: 0x100033B10, symSize: 0x70 }
  - { offsetInCU: 0x29F48, offset: 0x29F48, size: 0x8, addend: 0x0, symName: __ZNSt3__117__compressed_pairIP14position_timesRNS_9allocatorIS1_EEE5firstB8ue170006Ev, symObjAddr: 0x33220, symBinAddr: 0x100033B80, symSize: 0xE0 }
  - { offsetInCU: 0x29F6E, offset: 0x29F6E, size: 0x8, addend: 0x0, symName: __ZNKSt3__16vectorI14position_timesNS_9allocatorIS1_EEE17__annotate_deleteB8ue170006Ev, symObjAddr: 0x33300, symBinAddr: 0x100033C60, symSize: 0x1D0 }
  - { offsetInCU: 0x29F94, offset: 0x29F94, size: 0x8, addend: 0x0, symName: __ZNSt3__116reverse_iteratorIP14position_timesEC1B8ue170006ES2_, symObjAddr: 0x33550, symBinAddr: 0x100033EB0, symSize: 0x60 }
  - { offsetInCU: 0x29FCC, offset: 0x29FCC, size: 0x8, addend: 0x0, symName: __ZNKSt3__116reverse_iteratorIP14position_timesE4baseB8ue170006Ev, symObjAddr: 0x335B0, symBinAddr: 0x100033F10, symSize: 0x50 }
  - { offsetInCU: 0x29FF2, offset: 0x29FF2, size: 0x8, addend: 0x0, symName: __ZNKSt3__16vectorI14position_timesNS_9allocatorIS1_EEE14__annotate_newB8ue170006Em, symObjAddr: 0x336B0, symBinAddr: 0x100034010, symSize: 0x1C0 }
  - { offsetInCU: 0x2A04A, offset: 0x2A04A, size: 0x8, addend: 0x0, symName: __ZNKSt3__111__move_loopINS_17_ClassicAlgPolicyEEclB8ue170006INS_16reverse_iteratorIP14position_timesEES7_S7_EENS_4pairIT_T1_EES9_T0_SA_, symObjAddr: 0x33CA0, symBinAddr: 0x100034600, symSize: 0x160 }
  - { offsetInCU: 0x2A0B5, offset: 0x2A0B5, size: 0x8, addend: 0x0, symName: __ZNSt3__119__unwrap_range_implINS_16reverse_iteratorIP14position_timesEES4_E8__unwrapB8ue170006ES4_S4_, symObjAddr: 0x34010, symBinAddr: 0x100034970, symSize: 0xC0 }
  - { offsetInCU: 0x2A0EC, offset: 0x2A0EC, size: 0x8, addend: 0x0, symName: __ZNSt3__14pairINS_16reverse_iteratorIP14position_timesEES4_EC1B8ue170006IS4_S4_LPv0EEEOT_OT0_, symObjAddr: 0x340D0, symBinAddr: 0x100034A30, symSize: 0x60 }
  - { offsetInCU: 0x2A14A, offset: 0x2A14A, size: 0x8, addend: 0x0, symName: __ZNSt3__14pairINS_16reverse_iteratorIP14position_timesEES4_EC2B8ue170006IS4_S4_LPv0EEEOT_OT0_, symObjAddr: 0x34130, symBinAddr: 0x100034A90, symSize: 0x80 }
  - { offsetInCU: 0x2A1A8, offset: 0x2A1A8, size: 0x8, addend: 0x0, symName: __ZNSt3__18_IterOpsINS_17_ClassicAlgPolicyEE11__iter_moveB8ue170006IRNS_16reverse_iteratorIP14position_timesEEEENS_9enable_ifIXsr12is_referenceIDTdeclsr3stdE7declvalIRT_EEEEE5valueEDTclsr3stdE4movedeclsr3stdE7declvalISB_EEEEE4typeEOSA_, symObjAddr: 0x34250, symBinAddr: 0x100034BB0, symSize: 0xA0 }
  - { offsetInCU: 0x2A1D4, offset: 0x2A1D4, size: 0x8, addend: 0x0, symName: __ZNKSt3__116reverse_iteratorIP14position_timesEdeB8ue170006Ev, symObjAddr: 0x342F0, symBinAddr: 0x100034C50, symSize: 0xE0 }
  - { offsetInCU: 0x2A208, offset: 0x2A208, size: 0x8, addend: 0x0, symName: __ZNSt3__116reverse_iteratorIP14position_timesEppB8ue170006Ev, symObjAddr: 0x343D0, symBinAddr: 0x100034D30, symSize: 0xF0 }
  - { offsetInCU: 0x2A22E, offset: 0x2A22E, size: 0x8, addend: 0x0, symName: __ZNSt3__18_IterOpsINS_17_ClassicAlgPolicyEE25__validate_iter_referenceB8ue170006IRNS_16reverse_iteratorIP14position_timesEEEEvv, symObjAddr: 0x344C0, symBinAddr: 0x100034E20, symSize: 0x10 }
  - { offsetInCU: 0x2A24C, offset: 0x2A24C, size: 0x8, addend: 0x0, symName: __ZNSt3__118__unwrap_iter_implINS_16reverse_iteratorIP14position_timesEELb0EE8__unwrapB8ue170006ES4_, symObjAddr: 0x344D0, symBinAddr: 0x100034E30, symSize: 0x30 }
  - { offsetInCU: 0x2A26F, offset: 0x2A26F, size: 0x8, addend: 0x0, symName: __ZNSt3__119__unwrap_range_implINS_16reverse_iteratorIP14position_timesEES4_E8__rewrapB8ue170006ES4_S4_, symObjAddr: 0x34500, symBinAddr: 0x100034E60, symSize: 0x60 }
  - { offsetInCU: 0x2A2A0, offset: 0x2A2A0, size: 0x8, addend: 0x0, symName: __ZNSt3__118__unwrap_iter_implINS_16reverse_iteratorIP14position_timesEELb0EE8__rewrapB8ue170006ES4_S4_, symObjAddr: 0x34560, symBinAddr: 0x100034EC0, symSize: 0x30 }
  - { offsetInCU: 0x2A2CE, offset: 0x2A2CE, size: 0x8, addend: 0x0, symName: __ZNSt3__116reverse_iteratorIP14position_timesEC2B8ue170006ES2_, symObjAddr: 0x34590, symBinAddr: 0x100034EF0, symSize: 0x60 }
  - { offsetInCU: 0x2A306, offset: 0x2A306, size: 0x8, addend: 0x0, symName: __ZNSt3__114__split_bufferI14position_timesRNS_9allocatorIS1_EEED2Ev, symObjAddr: 0x345F0, symBinAddr: 0x100034F50, symSize: 0xC0 }
  - { offsetInCU: 0x2A332, offset: 0x2A332, size: 0x8, addend: 0x0, symName: __ZNSt3__114__split_bufferI14position_timesRNS_9allocatorIS1_EEE5clearB8ue170006Ev, symObjAddr: 0x346B0, symBinAddr: 0x100035010, symSize: 0x60 }
  - { offsetInCU: 0x2A358, offset: 0x2A358, size: 0x8, addend: 0x0, symName: __ZNSt3__116allocator_traitsINS_9allocatorI14position_timesEEE10deallocateB8ue170006ERS3_PS2_m, symObjAddr: 0x34710, symBinAddr: 0x100035070, symSize: 0x40 }
  - { offsetInCU: 0x2A39A, offset: 0x2A39A, size: 0x8, addend: 0x0, symName: __ZNKSt3__114__split_bufferI14position_timesRNS_9allocatorIS1_EEE8capacityB8ue170006Ev, symObjAddr: 0x34750, symBinAddr: 0x1000350B0, symSize: 0xA0 }
  - { offsetInCU: 0x2A3C0, offset: 0x2A3C0, size: 0x8, addend: 0x0, symName: __ZNSt3__114__split_bufferI14position_timesRNS_9allocatorIS1_EEE17__destruct_at_endB8ue170006EPS1_, symObjAddr: 0x347F0, symBinAddr: 0x100035150, symSize: 0x60 }
  - { offsetInCU: 0x2A3F4, offset: 0x2A3F4, size: 0x8, addend: 0x0, symName: __ZNSt3__114__split_bufferI14position_timesRNS_9allocatorIS1_EEE17__destruct_at_endB8ue170006EPS1_NS_17integral_constantIbLb0EEE, symObjAddr: 0x34850, symBinAddr: 0x1000351B0, symSize: 0x120 }
  - { offsetInCU: 0x2A435, offset: 0x2A435, size: 0x8, addend: 0x0, symName: __ZNSt3__19allocatorI14position_timesE10deallocateB8ue170006EPS1_m, symObjAddr: 0x34970, symBinAddr: 0x1000352D0, symSize: 0x70 }
  - { offsetInCU: 0x2A477, offset: 0x2A477, size: 0x8, addend: 0x0, symName: __ZNKSt3__114__split_bufferI14position_timesRNS_9allocatorIS1_EEE9__end_capB8ue170006Ev, symObjAddr: 0x349E0, symBinAddr: 0x100035340, symSize: 0xC0 }
  - { offsetInCU: 0x2A49D, offset: 0x2A49D, size: 0x8, addend: 0x0, symName: __ZNKSt3__117__compressed_pairIP14position_timesRNS_9allocatorIS1_EEE5firstB8ue170006Ev, symObjAddr: 0x34AA0, symBinAddr: 0x100035400, symSize: 0xE0 }
  - { offsetInCU: 0x2A4C3, offset: 0x2A4C3, size: 0x8, addend: 0x0, symName: __ZNSt3__16vectorI14position_timesNS_9allocatorIS1_EEE7__clearB8ue170006Ev, symObjAddr: 0x34B80, symBinAddr: 0x1000354E0, symSize: 0x60 }
  - { offsetInCU: 0x2A4E9, offset: 0x2A4E9, size: 0x8, addend: 0x0, symName: __ZNSt16initializer_listI14position_timesEC2B8ue170006Ev, symObjAddr: 0x34C70, symBinAddr: 0x1000355D0, symSize: 0x60 }
  - { offsetInCU: 0x2A513, offset: 0x2A513, size: 0x8, addend: 0x0, symName: __ZNSt3__16vectorI14position_timesNS_9allocatorIS1_EEE6assignIPKS1_Li0EEEvT_S8_, symObjAddr: 0x34CD0, symBinAddr: 0x100035630, symSize: 0x80 }
  - { offsetInCU: 0x2A568, offset: 0x2A568, size: 0x8, addend: 0x0, symName: __ZNKSt16initializer_listI14position_timesE5beginB8ue170006Ev, symObjAddr: 0x34D50, symBinAddr: 0x1000356B0, symSize: 0x50 }
  - { offsetInCU: 0x2A58E, offset: 0x2A58E, size: 0x8, addend: 0x0, symName: __ZNKSt16initializer_listI14position_timesE3endB8ue170006Ev, symObjAddr: 0x34DA0, symBinAddr: 0x100035700, symSize: 0xB0 }
  - { offsetInCU: 0x2A5B4, offset: 0x2A5B4, size: 0x8, addend: 0x0, symName: __ZNSt3__16vectorI14position_timesNS_9allocatorIS1_EEE18__assign_with_sizeB8ue170006IPKS1_S7_EEvT_T0_l, symObjAddr: 0x34E50, symBinAddr: 0x1000357B0, symSize: 0x1D0 }
  - { offsetInCU: 0x2A664, offset: 0x2A664, size: 0x8, addend: 0x0, symName: __ZNSt3__16vectorI14position_timesNS_9allocatorIS1_EEE18__construct_at_endIPKS1_S7_EEvT_T0_m, symObjAddr: 0x35100, symBinAddr: 0x100035A60, symSize: 0x180 }
  - { offsetInCU: 0x2A6DA, offset: 0x2A6DA, size: 0x8, addend: 0x0, symName: __ZNSt3__16vectorI14position_timesNS_9allocatorIS1_EEE13__vdeallocateEv, symObjAddr: 0x352D0, symBinAddr: 0x100035C30, symSize: 0x110 }
  - { offsetInCU: 0x2A702, offset: 0x2A702, size: 0x8, addend: 0x0, symName: __ZNSt3__16vectorI14position_timesNS_9allocatorIS1_EEE11__vallocateB8ue170006Em, symObjAddr: 0x353E0, symBinAddr: 0x100035D40, symSize: 0x1D0 }
  - { offsetInCU: 0x2A769, offset: 0x2A769, size: 0x8, addend: 0x0, symName: __ZNSt3__119__unwrap_range_implIPK14position_timesS3_E8__unwrapB8ue170006ES3_S3_, symObjAddr: 0x35880, symBinAddr: 0x1000361E0, symSize: 0x60 }
  - { offsetInCU: 0x2A7A0, offset: 0x2A7A0, size: 0x8, addend: 0x0, symName: __ZNSt3__14pairIPK14position_timesS3_EC1B8ue170006IS3_S3_LPv0EEEOT_OT0_, symObjAddr: 0x35910, symBinAddr: 0x100036270, symSize: 0x60 }
  - { offsetInCU: 0x2A7FE, offset: 0x2A7FE, size: 0x8, addend: 0x0, symName: __ZNSt3__118__unwrap_iter_implIPK14position_timesLb1EE8__unwrapB8ue170006ES3_, symObjAddr: 0x35970, symBinAddr: 0x1000362D0, symSize: 0x30 }
  - { offsetInCU: 0x2A821, offset: 0x2A821, size: 0x8, addend: 0x0, symName: __ZNSt3__14pairIPK14position_timesS3_EC2B8ue170006IS3_S3_LPv0EEEOT_OT0_, symObjAddr: 0x359C0, symBinAddr: 0x100036320, symSize: 0xE0 }
  - { offsetInCU: 0x2A87F, offset: 0x2A87F, size: 0x8, addend: 0x0, symName: __ZNSt3__118__unwrap_iter_implIP14position_timesLb1EE8__unwrapB8ue170006ES2_, symObjAddr: 0x35AA0, symBinAddr: 0x100036400, symSize: 0x30 }
  - { offsetInCU: 0x2A8A2, offset: 0x2A8A2, size: 0x8, addend: 0x0, symName: __ZNSt3__118__unwrap_iter_implIP14position_timesLb1EE8__rewrapB8ue170006ES2_S2_, symObjAddr: 0x35AD0, symBinAddr: 0x100036430, symSize: 0xC0 }
  - { offsetInCU: 0x2A8F6, offset: 0x2A8F6, size: 0x8, addend: 0x0, symName: __ZNKSt3__114__copy_trivialclB8ue170006IK14position_timesS2_Li0EEENS_4pairIPT_PT0_EES6_S6_S8_, symObjAddr: 0x35D20, symBinAddr: 0x100036680, symSize: 0x70 }
  - { offsetInCU: 0x2A96A, offset: 0x2A96A, size: 0x8, addend: 0x0, symName: __ZNSt3__14pairIPK14position_timesPS1_EC1B8ue170006IRS3_S4_LPv0EEEOT_OT0_, symObjAddr: 0x36040, symBinAddr: 0x1000369A0, symSize: 0x60 }
  - { offsetInCU: 0x2A9C8, offset: 0x2A9C8, size: 0x8, addend: 0x0, symName: __ZNSt3__14pairIPK14position_timesPS1_EC2B8ue170006IRS3_S4_LPv0EEEOT_OT0_, symObjAddr: 0x360A0, symBinAddr: 0x100036A00, symSize: 0xE0 }
  - { offsetInCU: 0x2AA26, offset: 0x2AA26, size: 0x8, addend: 0x0, symName: __ZNSt3__14pairIPK14position_timesPS1_EC1B8ue170006IS3_S4_LPv0EEEOT_OT0_, symObjAddr: 0x36180, symBinAddr: 0x100036AE0, symSize: 0x60 }
  - { offsetInCU: 0x2AA84, offset: 0x2AA84, size: 0x8, addend: 0x0, symName: __ZNSt3__14pairIPK14position_timesPS1_EC2B8ue170006IS3_S4_LPv0EEEOT_OT0_, symObjAddr: 0x361E0, symBinAddr: 0x100036B40, symSize: 0xE0 }
  - { offsetInCU: 0x2AAE2, offset: 0x2AAE2, size: 0x8, addend: 0x0, symName: __ZNSt3__119__unwrap_range_implIPK14position_timesS3_E8__rewrapB8ue170006ES3_S3_, symObjAddr: 0x362C0, symBinAddr: 0x100036C20, symSize: 0x30 }
  - { offsetInCU: 0x2AB13, offset: 0x2AB13, size: 0x8, addend: 0x0, symName: __ZNSt3__118__unwrap_iter_implIPK14position_timesLb1EE8__rewrapB8ue170006ES3_S3_, symObjAddr: 0x36330, symBinAddr: 0x100036C90, symSize: 0xC0 }
  - { offsetInCU: 0x2AB44, offset: 0x2AB44, size: 0x8, addend: 0x0, symName: __ZN6Canvas11draw_timersENSt3__16chrono8durationIxNS0_5ratioILl1ELl1EEEEES5_, symObjAddr: 0x36420, symBinAddr: 0x100036D80, symSize: 0x4D0 }
  - { offsetInCU: 0x2AB86, offset: 0x2AB86, size: 0x8, addend: 0x0, symName: __ZN6Canvas11draw_digitsEffif, symObjAddr: 0x368F0, symBinAddr: 0x100037250, symSize: 0x110 }
  - { offsetInCU: 0x2AC00, offset: 0x2AC00, size: 0x8, addend: 0x0, symName: __ZNSt3__16vectorI14position_timesNS_9allocatorIS1_EEED2B8ue170006Ev, symObjAddr: 0x36A00, symBinAddr: 0x100037360, symSize: 0xA0 }
  - { offsetInCU: 0x2AC2A, offset: 0x2AC2A, size: 0x8, addend: 0x0, symName: __ZNSt3__16vectorI14position_timesNS_9allocatorIS1_EEE16__destroy_vectorC1B8ue170006ERS4_, symObjAddr: 0x36AA0, symBinAddr: 0x100037400, symSize: 0x60 }
  - { offsetInCU: 0x2AC63, offset: 0x2AC63, size: 0x8, addend: 0x0, symName: __ZNSt3__16vectorI14position_timesNS_9allocatorIS1_EEE16__destroy_vectorclB8ue170006Ev, symObjAddr: 0x36B00, symBinAddr: 0x100037460, symSize: 0x200 }
  - { offsetInCU: 0x2AC89, offset: 0x2AC89, size: 0x8, addend: 0x0, symName: __ZNSt3__16vectorI14position_timesNS_9allocatorIS1_EEE16__destroy_vectorC2B8ue170006ERS4_, symObjAddr: 0x36D00, symBinAddr: 0x100037660, symSize: 0x90 }
  - { offsetInCU: 0x2ACC2, offset: 0x2ACC2, size: 0x8, addend: 0x0, symName: __ZN11thread_syncD2Ev, symObjAddr: 0x36D90, symBinAddr: 0x1000376F0, symSize: 0x60 }
  - { offsetInCU: 0x2ACEE, offset: 0x2ACEE, size: 0x8, addend: 0x0, symName: __ZNSt3__110lock_guardINS_5mutexEEC2B8ue170006ERS1_, symObjAddr: 0x36DF0, symBinAddr: 0x100037750, symSize: 0xD0 }
  - { offsetInCU: 0x2AD26, offset: 0x2AD26, size: 0x8, addend: 0x0, symName: __ZNSt3__110lock_guardINS_5mutexEED2B8ue170006Ev, symObjAddr: 0x36EC0, symBinAddr: 0x100037820, symSize: 0x90 }
  - { offsetInCU: 0x2AD50, offset: 0x2AD50, size: 0x8, addend: 0x0, symName: __ZNSt3__123mersenne_twister_engineIyLm64ELm312ELm156ELm31ELy13043109905998158313ELm29ELy6148914691236517205ELm17ELy8202884508482404352ELm37ELy18444473444759240704ELm43ELy6364136223846793005EEC2B8ue170006Ey, symObjAddr: 0x36F50, symBinAddr: 0x1000378B0, symSize: 0x60 }
  - { offsetInCU: 0x2AD88, offset: 0x2AD88, size: 0x8, addend: 0x0, symName: __ZNSt3__123mersenne_twister_engineIyLm64ELm312ELm156ELm31ELy13043109905998158313ELm29ELy6148914691236517205ELm17ELy8202884508482404352ELm37ELy18444473444759240704ELm43ELy6364136223846793005EE4seedEy, symObjAddr: 0x36FB0, symBinAddr: 0x100037910, symSize: 0x360 }
  - { offsetInCU: 0x2ADDB, offset: 0x2ADDB, size: 0x8, addend: 0x0, symName: __ZNSt3__123mersenne_twister_engineIyLm64ELm312ELm156ELm31ELy13043109905998158313ELm29ELy6148914691236517205ELm17ELy8202884508482404352ELm37ELy18444473444759240704ELm43ELy6364136223846793005EE8__rshiftB8ue170006ILm62EEENS_9enable_ifIXltT_L_ZNS1_3_DtEEEyE4typeEy, symObjAddr: 0x37310, symBinAddr: 0x100037C70, symSize: 0x50 }
  - { offsetInCU: 0x2AE08, offset: 0x2AE08, size: 0x8, addend: 0x0, symName: __ZNSt3__124uniform_int_distributionIyEC1B8ue170006Eyy, symObjAddr: 0x37360, symBinAddr: 0x100037CC0, symSize: 0x60 }
  - { offsetInCU: 0x2AE4E, offset: 0x2AE4E, size: 0x8, addend: 0x0, symName: __ZNSt3__124uniform_int_distributionIyEC2B8ue170006Eyy, symObjAddr: 0x373C0, symBinAddr: 0x100037D20, symSize: 0x60 }
  - { offsetInCU: 0x2AE94, offset: 0x2AE94, size: 0x8, addend: 0x0, symName: __ZNSt3__124uniform_int_distributionIyE10param_typeC1B8ue170006Eyy, symObjAddr: 0x37420, symBinAddr: 0x100037D80, symSize: 0x60 }
  - { offsetInCU: 0x2AEDA, offset: 0x2AEDA, size: 0x8, addend: 0x0, symName: __ZNSt3__124uniform_int_distributionIyE10param_typeC2B8ue170006Eyy, symObjAddr: 0x37480, symBinAddr: 0x100037DE0, symSize: 0x70 }
  - { offsetInCU: 0x2AF43, offset: 0x2AF43, size: 0x8, addend: 0x0, symName: __ZNKSt3__113basic_ostreamIcNS_11char_traitsIcEEE6sentrycvbB8ue170006Ev, symObjAddr: 0x38010, symBinAddr: 0x100038970, symSize: 0x80 }
  - { offsetInCU: 0x2AF69, offset: 0x2AF69, size: 0x8, addend: 0x0, symName: __ZNSt3__119ostreambuf_iteratorIcNS_11char_traitsIcEEEC1B8ue170006ERNS_13basic_ostreamIcS2_EE, symObjAddr: 0x38760, symBinAddr: 0x1000390C0, symSize: 0x60 }
  - { offsetInCU: 0x2AFA1, offset: 0x2AFA1, size: 0x8, addend: 0x0, symName: __ZNKSt3__18ios_base5flagsB8ue170006Ev, symObjAddr: 0x387C0, symBinAddr: 0x100039120, symSize: 0xE0 }
  - { offsetInCU: 0x2AFC9, offset: 0x2AFC9, size: 0x8, addend: 0x0, symName: __ZNKSt3__19basic_iosIcNS_11char_traitsIcEEE4fillB8ue170006Ev, symObjAddr: 0x388A0, symBinAddr: 0x100039200, symSize: 0x2C0 }
  - { offsetInCU: 0x2AFF1, offset: 0x2AFF1, size: 0x8, addend: 0x0, symName: __ZNKSt3__119ostreambuf_iteratorIcNS_11char_traitsIcEEE6failedB8ue170006Ev, symObjAddr: 0x38B60, symBinAddr: 0x1000394C0, symSize: 0x60 }
  - { offsetInCU: 0x2B017, offset: 0x2B017, size: 0x8, addend: 0x0, symName: __ZNSt3__19basic_iosIcNS_11char_traitsIcEEE8setstateB8ue170006Ej, symObjAddr: 0x38BC0, symBinAddr: 0x100039520, symSize: 0x100 }
  - { offsetInCU: 0x2B04C, offset: 0x2B04C, size: 0x8, addend: 0x0, symName: __ZNKSt3__18ios_base5widthB8ue170006Ev, symObjAddr: 0x38CC0, symBinAddr: 0x100039620, symSize: 0xE0 }
  - { offsetInCU: 0x2B074, offset: 0x2B074, size: 0x8, addend: 0x0, symName: __ZNSt3__115basic_streambufIcNS_11char_traitsIcEEE5sputnB8ue170006EPKcl, symObjAddr: 0x38DA0, symBinAddr: 0x100039700, symSize: 0xF0 }
  - { offsetInCU: 0x2B0B6, offset: 0x2B0B6, size: 0x8, addend: 0x0, symName: __ZNSt3__112basic_stringIcNS_11char_traitsIcEENS_9allocatorIcEEEC1B8ue170006Emc, symObjAddr: 0x38E90, symBinAddr: 0x1000397F0, symSize: 0x60 }
  - { offsetInCU: 0x2B0FE, offset: 0x2B0FE, size: 0x8, addend: 0x0, symName: __ZNSt3__18ios_base5widthB8ue170006El, symObjAddr: 0x38EF0, symBinAddr: 0x100039850, symSize: 0x180 }
  - { offsetInCU: 0x2B144, offset: 0x2B144, size: 0x8, addend: 0x0, symName: __ZNSt3__112basic_stringIcNS_11char_traitsIcEENS_9allocatorIcEEEC2B8ue170006Emc, symObjAddr: 0x39070, symBinAddr: 0x1000399D0, symSize: 0x80 }
  - { offsetInCU: 0x2B18C, offset: 0x2B18C, size: 0x8, addend: 0x0, symName: __ZNSt3__119ostreambuf_iteratorIcNS_11char_traitsIcEEEC2B8ue170006ERNS_13basic_ostreamIcS2_EE, symObjAddr: 0x390F0, symBinAddr: 0x100039A50, symSize: 0x200 }
  - { offsetInCU: 0x2B1C4, offset: 0x2B1C4, size: 0x8, addend: 0x0, symName: __ZNKSt3__19basic_iosIcNS_11char_traitsIcEEE5rdbufB8ue170006Ev, symObjAddr: 0x392F0, symBinAddr: 0x100039C50, symSize: 0x100 }
  - { offsetInCU: 0x2B1EC, offset: 0x2B1EC, size: 0x8, addend: 0x0, symName: __ZNKSt3__18ios_base5rdbufB8ue170006Ev, symObjAddr: 0x393F0, symBinAddr: 0x100039D50, symSize: 0xE0 }
  - { offsetInCU: 0x2B212, offset: 0x2B212, size: 0x8, addend: 0x0, symName: __ZNSt3__111char_traitsIcE11eq_int_typeB8ue170006Eii, symObjAddr: 0x394D0, symBinAddr: 0x100039E30, symSize: 0x30 }
  - { offsetInCU: 0x2B245, offset: 0x2B245, size: 0x8, addend: 0x0, symName: __ZNSt3__111char_traitsIcE3eofB8ue170006Ev, symObjAddr: 0x39500, symBinAddr: 0x100039E60, symSize: 0x20 }
  - { offsetInCU: 0x2B259, offset: 0x2B259, size: 0x8, addend: 0x0, symName: __ZNKSt3__19basic_iosIcNS_11char_traitsIcEEE5widenB8ue170006Ec, symObjAddr: 0x39520, symBinAddr: 0x100039E80, symSize: 0x230 }
  - { offsetInCU: 0x2B2C9, offset: 0x2B2C9, size: 0x8, addend: 0x0, symName: __ZNKSt3__15ctypeIcE5widenB8ue170006Ec, symObjAddr: 0x398B0, symBinAddr: 0x10003A210, symSize: 0xF0 }
  - { offsetInCU: 0x2B2FE, offset: 0x2B2FE, size: 0x8, addend: 0x0, symName: __ZNSt3__18ios_base8setstateB8ue170006Ej, symObjAddr: 0x399A0, symBinAddr: 0x10003A300, symSize: 0x170 }
  - { offsetInCU: 0x2B335, offset: 0x2B335, size: 0x8, addend: 0x0, symName: __ZNSt3__113unordered_mapIc10piece_typeNS_4hashIcEENS_8equal_toIcEENS_9allocatorINS_4pairIKcS1_EEEEEC2B8ue170006Ev, symObjAddr: 0x39B10, symBinAddr: 0x10003A470, symSize: 0x50 }
  - { offsetInCU: 0x2B35F, offset: 0x2B35F, size: 0x8, addend: 0x0, symName: __ZNSt3__112__hash_tableINS_17__hash_value_typeIc10piece_typeEENS_22__unordered_map_hasherIcS3_NS_4hashIcEENS_8equal_toIcEELb1EEENS_21__unordered_map_equalIcS3_S8_S6_Lb1EEENS_9allocatorIS3_EEEC1Ev, symObjAddr: 0x39B60, symBinAddr: 0x10003A4C0, symSize: 0x50 }
  - { offsetInCU: 0x2B38B, offset: 0x2B38B, size: 0x8, addend: 0x0, symName: __ZNSt3__112__hash_tableINS_17__hash_value_typeIc10piece_typeEENS_22__unordered_map_hasherIcS3_NS_4hashIcEENS_8equal_toIcEELb1EEENS_21__unordered_map_equalIcS3_S8_S6_Lb1EEENS_9allocatorIS3_EEEC2Ev, symObjAddr: 0x39BB0, symBinAddr: 0x10003A510, symSize: 0xB0 }
  - { offsetInCU: 0x2B3B7, offset: 0x2B3B7, size: 0x8, addend: 0x0, symName: __ZNSt3__110unique_ptrIA_PNS_16__hash_node_baseIPNS_11__hash_nodeINS_17__hash_value_typeIc10piece_typeEEPvEEEENS_25__bucket_list_deallocatorINS_9allocatorISA_EEEEEC1B8ue170006ILb1EvEEv, symObjAddr: 0x39C60, symBinAddr: 0x10003A5C0, symSize: 0x50 }
  - { offsetInCU: 0x2B3EC, offset: 0x2B3EC, size: 0x8, addend: 0x0, symName: __ZNSt3__117__compressed_pairINS_16__hash_node_baseIPNS_11__hash_nodeINS_17__hash_value_typeIc10piece_typeEEPvEEEENS_9allocatorIS7_EEEC1B8ue170006ILb1EvEEv, symObjAddr: 0x39CB0, symBinAddr: 0x10003A610, symSize: 0x50 }
  - { offsetInCU: 0x2B421, offset: 0x2B421, size: 0x8, addend: 0x0, symName: __ZNSt3__117__compressed_pairImNS_22__unordered_map_hasherIcNS_17__hash_value_typeIc10piece_typeEENS_4hashIcEENS_8equal_toIcEELb1EEEEC1B8ue170006IiNS_18__default_init_tagEEEOT_OT0_, symObjAddr: 0x39D00, symBinAddr: 0x10003A660, symSize: 0x60 }
  - { offsetInCU: 0x2B479, offset: 0x2B479, size: 0x8, addend: 0x0, symName: __ZNSt3__117__compressed_pairIfNS_21__unordered_map_equalIcNS_17__hash_value_typeIc10piece_typeEENS_8equal_toIcEENS_4hashIcEELb1EEEEC1B8ue170006IfNS_18__default_init_tagEEEOT_OT0_, symObjAddr: 0x39D60, symBinAddr: 0x10003A6C0, symSize: 0x60 }
  - { offsetInCU: 0x2B4D1, offset: 0x2B4D1, size: 0x8, addend: 0x0, symName: __ZNSt3__110unique_ptrIA_PNS_16__hash_node_baseIPNS_11__hash_nodeINS_17__hash_value_typeIc10piece_typeEEPvEEEENS_25__bucket_list_deallocatorINS_9allocatorISA_EEEEEC2B8ue170006ILb1EvEEv, symObjAddr: 0x39DC0, symBinAddr: 0x10003A720, symSize: 0x70 }
  - { offsetInCU: 0x2B506, offset: 0x2B506, size: 0x8, addend: 0x0, symName: __ZNSt3__117__compressed_pairIPPNS_16__hash_node_baseIPNS_11__hash_nodeINS_17__hash_value_typeIc10piece_typeEEPvEEEENS_25__bucket_list_deallocatorINS_9allocatorISA_EEEEEC1B8ue170006INS_16__value_init_tagESI_EEOT_OT0_, symObjAddr: 0x39E30, symBinAddr: 0x10003A790, symSize: 0x60 }
  - { offsetInCU: 0x2B55E, offset: 0x2B55E, size: 0x8, addend: 0x0, symName: __ZNSt3__117__compressed_pairIPPNS_16__hash_node_baseIPNS_11__hash_nodeINS_17__hash_value_typeIc10piece_typeEEPvEEEENS_25__bucket_list_deallocatorINS_9allocatorISA_EEEEEC2B8ue170006INS_16__value_init_tagESI_EEOT_OT0_, symObjAddr: 0x39E90, symBinAddr: 0x10003A7F0, symSize: 0xD0 }
  - { offsetInCU: 0x2B5B6, offset: 0x2B5B6, size: 0x8, addend: 0x0, symName: __ZNSt3__122__compressed_pair_elemIPPNS_16__hash_node_baseIPNS_11__hash_nodeINS_17__hash_value_typeIc10piece_typeEEPvEEEELi0ELb0EEC2B8ue170006ENS_16__value_init_tagE, symObjAddr: 0x39F60, symBinAddr: 0x10003A8C0, symSize: 0x60 }
  - { offsetInCU: 0x2B5EB, offset: 0x2B5EB, size: 0x8, addend: 0x0, symName: __ZNSt3__122__compressed_pair_elemINS_25__bucket_list_deallocatorINS_9allocatorIPNS_16__hash_node_baseIPNS_11__hash_nodeINS_17__hash_value_typeIc10piece_typeEEPvEEEEEEEELi1ELb0EEC2B8ue170006ENS_16__value_init_tagE, symObjAddr: 0x39FC0, symBinAddr: 0x10003A920, symSize: 0x50 }
  - { offsetInCU: 0x2B620, offset: 0x2B620, size: 0x8, addend: 0x0, symName: __ZNSt3__125__bucket_list_deallocatorINS_9allocatorIPNS_16__hash_node_baseIPNS_11__hash_nodeINS_17__hash_value_typeIc10piece_typeEEPvEEEEEEEC1B8ue170006Ev, symObjAddr: 0x3A010, symBinAddr: 0x10003A970, symSize: 0x50 }
  - { offsetInCU: 0x2B64A, offset: 0x2B64A, size: 0x8, addend: 0x0, symName: __ZNSt3__125__bucket_list_deallocatorINS_9allocatorIPNS_16__hash_node_baseIPNS_11__hash_nodeINS_17__hash_value_typeIc10piece_typeEEPvEEEEEEEC2B8ue170006Ev, symObjAddr: 0x3A060, symBinAddr: 0x10003A9C0, symSize: 0x70 }
  - { offsetInCU: 0x2B674, offset: 0x2B674, size: 0x8, addend: 0x0, symName: __ZNSt3__117__compressed_pairImNS_9allocatorIPNS_16__hash_node_baseIPNS_11__hash_nodeINS_17__hash_value_typeIc10piece_typeEEPvEEEEEEEC1B8ue170006IiNS_18__default_init_tagEEEOT_OT0_, symObjAddr: 0x3A0D0, symBinAddr: 0x10003AA30, symSize: 0x60 }
  - { offsetInCU: 0x2B6CC, offset: 0x2B6CC, size: 0x8, addend: 0x0, symName: __ZNSt3__117__compressed_pairImNS_9allocatorIPNS_16__hash_node_baseIPNS_11__hash_nodeINS_17__hash_value_typeIc10piece_typeEEPvEEEEEEEC2B8ue170006IiNS_18__default_init_tagEEEOT_OT0_, symObjAddr: 0x3A130, symBinAddr: 0x10003AA90, symSize: 0xF0 }
  - { offsetInCU: 0x2B724, offset: 0x2B724, size: 0x8, addend: 0x0, symName: __ZNSt3__122__compressed_pair_elemINS_9allocatorIPNS_16__hash_node_baseIPNS_11__hash_nodeINS_17__hash_value_typeIc10piece_typeEEPvEEEEEELi1ELb1EEC2B8ue170006ENS_18__default_init_tagE, symObjAddr: 0x3A220, symBinAddr: 0x10003AB80, symSize: 0x60 }
  - { offsetInCU: 0x2B759, offset: 0x2B759, size: 0x8, addend: 0x0, symName: __ZNSt3__19allocatorIPNS_16__hash_node_baseIPNS_11__hash_nodeINS_17__hash_value_typeIc10piece_typeEEPvEEEEEC2B8ue170006Ev, symObjAddr: 0x3A280, symBinAddr: 0x10003ABE0, symSize: 0x60 }
  - { offsetInCU: 0x2B783, offset: 0x2B783, size: 0x8, addend: 0x0, symName: __ZNSt3__116__non_trivial_ifILb1ENS_9allocatorIPNS_16__hash_node_baseIPNS_11__hash_nodeINS_17__hash_value_typeIc10piece_typeEEPvEEEEEEEC2B8ue170006Ev, symObjAddr: 0x3A2E0, symBinAddr: 0x10003AC40, symSize: 0x40 }
  - { offsetInCU: 0x2B7AD, offset: 0x2B7AD, size: 0x8, addend: 0x0, symName: __ZNSt3__117__compressed_pairINS_16__hash_node_baseIPNS_11__hash_nodeINS_17__hash_value_typeIc10piece_typeEEPvEEEENS_9allocatorIS7_EEEC2B8ue170006ILb1EvEEv, symObjAddr: 0x3A320, symBinAddr: 0x10003AC80, symSize: 0xB0 }
  - { offsetInCU: 0x2B7E2, offset: 0x2B7E2, size: 0x8, addend: 0x0, symName: __ZNSt3__122__compressed_pair_elemINS_16__hash_node_baseIPNS_11__hash_nodeINS_17__hash_value_typeIc10piece_typeEEPvEEEELi0ELb0EEC2B8ue170006ENS_16__value_init_tagE, symObjAddr: 0x3A3D0, symBinAddr: 0x10003AD30, symSize: 0x50 }
  - { offsetInCU: 0x2B817, offset: 0x2B817, size: 0x8, addend: 0x0, symName: __ZNSt3__122__compressed_pair_elemINS_9allocatorINS_11__hash_nodeINS_17__hash_value_typeIc10piece_typeEEPvEEEELi1ELb1EEC2B8ue170006ENS_16__value_init_tagE, symObjAddr: 0x3A420, symBinAddr: 0x10003AD80, symSize: 0x60 }
  - { offsetInCU: 0x2B84C, offset: 0x2B84C, size: 0x8, addend: 0x0, symName: __ZNSt3__116__hash_node_baseIPNS_11__hash_nodeINS_17__hash_value_typeIc10piece_typeEEPvEEEC1B8ue170006Ev, symObjAddr: 0x3A480, symBinAddr: 0x10003ADE0, symSize: 0x50 }
  - { offsetInCU: 0x2B876, offset: 0x2B876, size: 0x8, addend: 0x0, symName: __ZNSt3__116__hash_node_baseIPNS_11__hash_nodeINS_17__hash_value_typeIc10piece_typeEEPvEEEC2B8ue170006Ev, symObjAddr: 0x3A4D0, symBinAddr: 0x10003AE30, symSize: 0x60 }
  - { offsetInCU: 0x2B8A0, offset: 0x2B8A0, size: 0x8, addend: 0x0, symName: __ZNSt3__19allocatorINS_11__hash_nodeINS_17__hash_value_typeIc10piece_typeEEPvEEEC2B8ue170006Ev, symObjAddr: 0x3A530, symBinAddr: 0x10003AE90, symSize: 0x60 }
  - { offsetInCU: 0x2B8CA, offset: 0x2B8CA, size: 0x8, addend: 0x0, symName: __ZNSt3__116__non_trivial_ifILb1ENS_9allocatorINS_11__hash_nodeINS_17__hash_value_typeIc10piece_typeEEPvEEEEEC2B8ue170006Ev, symObjAddr: 0x3A590, symBinAddr: 0x10003AEF0, symSize: 0x40 }
  - { offsetInCU: 0x2B8F4, offset: 0x2B8F4, size: 0x8, addend: 0x0, symName: __ZNSt3__117__compressed_pairImNS_22__unordered_map_hasherIcNS_17__hash_value_typeIc10piece_typeEENS_4hashIcEENS_8equal_toIcEELb1EEEEC2B8ue170006IiNS_18__default_init_tagEEEOT_OT0_, symObjAddr: 0x3A5D0, symBinAddr: 0x10003AF30, symSize: 0xF0 }
  - { offsetInCU: 0x2B94C, offset: 0x2B94C, size: 0x8, addend: 0x0, symName: __ZNSt3__122__compressed_pair_elemINS_22__unordered_map_hasherIcNS_17__hash_value_typeIc10piece_typeEENS_4hashIcEENS_8equal_toIcEELb1EEELi1ELb1EEC2B8ue170006ENS_18__default_init_tagE, symObjAddr: 0x3A6C0, symBinAddr: 0x10003B020, symSize: 0x60 }
  - { offsetInCU: 0x2B981, offset: 0x2B981, size: 0x8, addend: 0x0, symName: __ZNSt3__122__unordered_map_hasherIcNS_17__hash_value_typeIc10piece_typeEENS_4hashIcEENS_8equal_toIcEELb1EEC2B8ue170006Ev, symObjAddr: 0x3A720, symBinAddr: 0x10003B080, symSize: 0x40 }
  - { offsetInCU: 0x2B9AB, offset: 0x2B9AB, size: 0x8, addend: 0x0, symName: __ZNSt3__117__compressed_pairIfNS_21__unordered_map_equalIcNS_17__hash_value_typeIc10piece_typeEENS_8equal_toIcEENS_4hashIcEELb1EEEEC2B8ue170006IfNS_18__default_init_tagEEEOT_OT0_, symObjAddr: 0x3A760, symBinAddr: 0x10003B0C0, symSize: 0xF0 }
  - { offsetInCU: 0x2BA03, offset: 0x2BA03, size: 0x8, addend: 0x0, symName: __ZNSt3__122__compressed_pair_elemINS_21__unordered_map_equalIcNS_17__hash_value_typeIc10piece_typeEENS_8equal_toIcEENS_4hashIcEELb1EEELi1ELb1EEC2B8ue170006ENS_18__default_init_tagE, symObjAddr: 0x3A850, symBinAddr: 0x10003B1B0, symSize: 0x60 }
  - { offsetInCU: 0x2BA38, offset: 0x2BA38, size: 0x8, addend: 0x0, symName: __ZNSt3__121__unordered_map_equalIcNS_17__hash_value_typeIc10piece_typeEENS_8equal_toIcEENS_4hashIcEELb1EEC2B8ue170006Ev, symObjAddr: 0x3A8B0, symBinAddr: 0x10003B210, symSize: 0x40 }
  - { offsetInCU: 0x2BA62, offset: 0x2BA62, size: 0x8, addend: 0x0, symName: __ZNSt3__113unordered_mapIc10piece_typeNS_4hashIcEENS_8equal_toIcEENS_9allocatorINS_4pairIKcS1_EEEEED2B8ue170006Ev, symObjAddr: 0x3A8F0, symBinAddr: 0x10003B250, symSize: 0x50 }
  - { offsetInCU: 0x2BA8C, offset: 0x2BA8C, size: 0x8, addend: 0x0, symName: __ZNSt3__112__hash_tableINS_17__hash_value_typeIc10piece_typeEENS_22__unordered_map_hasherIcS3_NS_4hashIcEENS_8equal_toIcEELb1EEENS_21__unordered_map_equalIcS3_S8_S6_Lb1EEENS_9allocatorIS3_EEED1Ev, symObjAddr: 0x3A940, symBinAddr: 0x10003B2A0, symSize: 0x50 }
  - { offsetInCU: 0x2BAB8, offset: 0x2BAB8, size: 0x8, addend: 0x0, symName: __ZNSt3__112__hash_tableINS_17__hash_value_typeIc10piece_typeEENS_22__unordered_map_hasherIcS3_NS_4hashIcEENS_8equal_toIcEELb1EEENS_21__unordered_map_equalIcS3_S8_S6_Lb1EEENS_9allocatorIS3_EEED2Ev, symObjAddr: 0x3A990, symBinAddr: 0x10003B2F0, symSize: 0x110 }
  - { offsetInCU: 0x2BAE4, offset: 0x2BAE4, size: 0x8, addend: 0x0, symName: __ZNSt3__112__hash_tableINS_17__hash_value_typeIc10piece_typeEENS_22__unordered_map_hasherIcS3_NS_4hashIcEENS_8equal_toIcEELb1EEENS_21__unordered_map_equalIcS3_S8_S6_Lb1EEENS_9allocatorIS3_EEE17__deallocate_nodeEPNS_16__hash_node_baseIPNS_11__hash_nodeIS3_PvEEEE, symObjAddr: 0x3AAA0, symBinAddr: 0x10003B400, symSize: 0x220 }
  - { offsetInCU: 0x2BB4E, offset: 0x2BB4E, size: 0x8, addend: 0x0, symName: __ZNSt3__117__compressed_pairINS_16__hash_node_baseIPNS_11__hash_nodeINS_17__hash_value_typeIc10piece_typeEEPvEEEENS_9allocatorIS7_EEE5firstB8ue170006Ev, symObjAddr: 0x3ACC0, symBinAddr: 0x10003B620, symSize: 0xE0 }
  - { offsetInCU: 0x2BB74, offset: 0x2BB74, size: 0x8, addend: 0x0, symName: __ZNSt3__110unique_ptrIA_PNS_16__hash_node_baseIPNS_11__hash_nodeINS_17__hash_value_typeIc10piece_typeEEPvEEEENS_25__bucket_list_deallocatorINS_9allocatorISA_EEEEED1B8ue170006Ev, symObjAddr: 0x3ADA0, symBinAddr: 0x10003B700, symSize: 0x50 }
  - { offsetInCU: 0x2BB9E, offset: 0x2BB9E, size: 0x8, addend: 0x0, symName: __ZNSt3__112__hash_tableINS_17__hash_value_typeIc10piece_typeEENS_22__unordered_map_hasherIcS3_NS_4hashIcEENS_8equal_toIcEELb1EEENS_21__unordered_map_equalIcS3_S8_S6_Lb1EEENS_9allocatorIS3_EEE12__node_allocB8ue170006Ev, symObjAddr: 0x3ADF0, symBinAddr: 0x10003B750, symSize: 0xB0 }
  - { offsetInCU: 0x2BBC4, offset: 0x2BBC4, size: 0x8, addend: 0x0, symName: __ZNSt3__116__hash_node_baseIPNS_11__hash_nodeINS_17__hash_value_typeIc10piece_typeEEPvEEE8__upcastB8ue170006Ev, symObjAddr: 0x3AEA0, symBinAddr: 0x10003B800, symSize: 0xC0 }
  - { offsetInCU: 0x2BBEA, offset: 0x2BBEA, size: 0x8, addend: 0x0, symName: __ZNSt3__116allocator_traitsINS_9allocatorINS_11__hash_nodeINS_17__hash_value_typeIc10piece_typeEEPvEEEEE7destroyB8ue170006INS_4pairIKcS4_EEvvEEvRS8_PT_, symObjAddr: 0x3AF60, symBinAddr: 0x10003B8C0, symSize: 0x30 }
  - { offsetInCU: 0x2BC25, offset: 0x2BC25, size: 0x8, addend: 0x0, symName: __ZNSt3__122__hash_key_value_typesINS_17__hash_value_typeIc10piece_typeEEE9__get_ptrB8ue170006ERS3_, symObjAddr: 0x3AF90, symBinAddr: 0x10003B8F0, symSize: 0x30 }
  - { offsetInCU: 0x2BC48, offset: 0x2BC48, size: 0x8, addend: 0x0, symName: __ZNSt3__116allocator_traitsINS_9allocatorINS_11__hash_nodeINS_17__hash_value_typeIc10piece_typeEEPvEEEEE10deallocateB8ue170006ERS8_PS7_m, symObjAddr: 0x3AFC0, symBinAddr: 0x10003B920, symSize: 0x40 }
  - { offsetInCU: 0x2BC8A, offset: 0x2BC8A, size: 0x8, addend: 0x0, symName: __ZNSt3__117__compressed_pairINS_16__hash_node_baseIPNS_11__hash_nodeINS_17__hash_value_typeIc10piece_typeEEPvEEEENS_9allocatorIS7_EEE6secondB8ue170006Ev, symObjAddr: 0x3B000, symBinAddr: 0x10003B960, symSize: 0xD0 }
  - { offsetInCU: 0x2BCB0, offset: 0x2BCB0, size: 0x8, addend: 0x0, symName: __ZNSt3__122__compressed_pair_elemINS_9allocatorINS_11__hash_nodeINS_17__hash_value_typeIc10piece_typeEEPvEEEELi1ELb1EE5__getB8ue170006Ev, symObjAddr: 0x3B0D0, symBinAddr: 0x10003BA30, symSize: 0x60 }
  - { offsetInCU: 0x2BCD6, offset: 0x2BCD6, size: 0x8, addend: 0x0, symName: __ZNSt3__114pointer_traitsIPNS_16__hash_node_baseIPNS_11__hash_nodeINS_17__hash_value_typeIc10piece_typeEEPvEEEEE10pointer_toB8ue170006ERS9_, symObjAddr: 0x3B130, symBinAddr: 0x10003BA90, symSize: 0x20 }
  - { offsetInCU: 0x2BCF9, offset: 0x2BCF9, size: 0x8, addend: 0x0, symName: __ZNSt3__117__hash_value_typeIc10piece_typeE11__get_valueB8ue170006Ev, symObjAddr: 0x3B1A0, symBinAddr: 0x10003BB00, symSize: 0x60 }
  - { offsetInCU: 0x2BD1F, offset: 0x2BD1F, size: 0x8, addend: 0x0, symName: __ZNSt3__19allocatorINS_11__hash_nodeINS_17__hash_value_typeIc10piece_typeEEPvEEE10deallocateB8ue170006EPS6_m, symObjAddr: 0x3B250, symBinAddr: 0x10003BBB0, symSize: 0x70 }
  - { offsetInCU: 0x2BD61, offset: 0x2BD61, size: 0x8, addend: 0x0, symName: __ZNSt3__122__compressed_pair_elemINS_16__hash_node_baseIPNS_11__hash_nodeINS_17__hash_value_typeIc10piece_typeEEPvEEEELi0ELb0EE5__getB8ue170006Ev, symObjAddr: 0x3B2C0, symBinAddr: 0x10003BC20, symSize: 0x80 }
  - { offsetInCU: 0x2BD87, offset: 0x2BD87, size: 0x8, addend: 0x0, symName: __ZNSt3__110unique_ptrIA_PNS_16__hash_node_baseIPNS_11__hash_nodeINS_17__hash_value_typeIc10piece_typeEEPvEEEENS_25__bucket_list_deallocatorINS_9allocatorISA_EEEEED2B8ue170006Ev, symObjAddr: 0x3B340, symBinAddr: 0x10003BCA0, symSize: 0x60 }
  - { offsetInCU: 0x2BDB1, offset: 0x2BDB1, size: 0x8, addend: 0x0, symName: __ZNSt3__110unique_ptrIA_PNS_16__hash_node_baseIPNS_11__hash_nodeINS_17__hash_value_typeIc10piece_typeEEPvEEEENS_25__bucket_list_deallocatorINS_9allocatorISA_EEEEE5resetB8ue170006EDn, symObjAddr: 0x3B3A0, symBinAddr: 0x10003BD00, symSize: 0x1C0 }
  - { offsetInCU: 0x2BDF2, offset: 0x2BDF2, size: 0x8, addend: 0x0, symName: __ZNSt3__117__compressed_pairIPPNS_16__hash_node_baseIPNS_11__hash_nodeINS_17__hash_value_typeIc10piece_typeEEPvEEEENS_25__bucket_list_deallocatorINS_9allocatorISA_EEEEE5firstB8ue170006Ev, symObjAddr: 0x3B560, symBinAddr: 0x10003BEC0, symSize: 0xE0 }
  - { offsetInCU: 0x2BE18, offset: 0x2BE18, size: 0x8, addend: 0x0, symName: __ZNSt3__117__compressed_pairIPPNS_16__hash_node_baseIPNS_11__hash_nodeINS_17__hash_value_typeIc10piece_typeEEPvEEEENS_25__bucket_list_deallocatorINS_9allocatorISA_EEEEE6secondB8ue170006Ev, symObjAddr: 0x3B640, symBinAddr: 0x10003BFA0, symSize: 0xE0 }
  - { offsetInCU: 0x2BE3E, offset: 0x2BE3E, size: 0x8, addend: 0x0, symName: __ZNSt3__125__bucket_list_deallocatorINS_9allocatorIPNS_16__hash_node_baseIPNS_11__hash_nodeINS_17__hash_value_typeIc10piece_typeEEPvEEEEEEEclB8ue170006EPSB_, symObjAddr: 0x3B720, symBinAddr: 0x10003C080, symSize: 0xD0 }
  - { offsetInCU: 0x2BE73, offset: 0x2BE73, size: 0x8, addend: 0x0, symName: __ZNSt3__122__compressed_pair_elemIPPNS_16__hash_node_baseIPNS_11__hash_nodeINS_17__hash_value_typeIc10piece_typeEEPvEEEELi0ELb0EE5__getB8ue170006Ev, symObjAddr: 0x3B7F0, symBinAddr: 0x10003C150, symSize: 0x80 }
  - { offsetInCU: 0x2BE99, offset: 0x2BE99, size: 0x8, addend: 0x0, symName: __ZNSt3__122__compressed_pair_elemINS_25__bucket_list_deallocatorINS_9allocatorIPNS_16__hash_node_baseIPNS_11__hash_nodeINS_17__hash_value_typeIc10piece_typeEEPvEEEEEEEELi1ELb0EE5__getB8ue170006Ev, symObjAddr: 0x3B870, symBinAddr: 0x10003C1D0, symSize: 0x80 }
  - { offsetInCU: 0x2BEBF, offset: 0x2BEBF, size: 0x8, addend: 0x0, symName: __ZNSt3__116allocator_traitsINS_9allocatorIPNS_16__hash_node_baseIPNS_11__hash_nodeINS_17__hash_value_typeIc10piece_typeEEPvEEEEEEE10deallocateB8ue170006ERSC_PSB_m, symObjAddr: 0x3B8F0, symBinAddr: 0x10003C250, symSize: 0x40 }
  - { offsetInCU: 0x2BF01, offset: 0x2BF01, size: 0x8, addend: 0x0, symName: __ZNSt3__125__bucket_list_deallocatorINS_9allocatorIPNS_16__hash_node_baseIPNS_11__hash_nodeINS_17__hash_value_typeIc10piece_typeEEPvEEEEEEE7__allocB8ue170006Ev, symObjAddr: 0x3B930, symBinAddr: 0x10003C290, symSize: 0xB0 }
  - { offsetInCU: 0x2BF27, offset: 0x2BF27, size: 0x8, addend: 0x0, symName: __ZNSt3__125__bucket_list_deallocatorINS_9allocatorIPNS_16__hash_node_baseIPNS_11__hash_nodeINS_17__hash_value_typeIc10piece_typeEEPvEEEEEEE4sizeB8ue170006Ev, symObjAddr: 0x3B9E0, symBinAddr: 0x10003C340, symSize: 0xC0 }
  - { offsetInCU: 0x2BF4D, offset: 0x2BF4D, size: 0x8, addend: 0x0, symName: __ZNSt3__19allocatorIPNS_16__hash_node_baseIPNS_11__hash_nodeINS_17__hash_value_typeIc10piece_typeEEPvEEEEE10deallocateB8ue170006EPSA_m, symObjAddr: 0x3BAA0, symBinAddr: 0x10003C400, symSize: 0x60 }
  - { offsetInCU: 0x2BF8F, offset: 0x2BF8F, size: 0x8, addend: 0x0, symName: __ZNSt3__117__compressed_pairImNS_9allocatorIPNS_16__hash_node_baseIPNS_11__hash_nodeINS_17__hash_value_typeIc10piece_typeEEPvEEEEEEE6secondB8ue170006Ev, symObjAddr: 0x3BB00, symBinAddr: 0x10003C460, symSize: 0xD0 }
  - { offsetInCU: 0x2BFB5, offset: 0x2BFB5, size: 0x8, addend: 0x0, symName: __ZNSt3__122__compressed_pair_elemINS_9allocatorIPNS_16__hash_node_baseIPNS_11__hash_nodeINS_17__hash_value_typeIc10piece_typeEEPvEEEEEELi1ELb1EE5__getB8ue170006Ev, symObjAddr: 0x3BBD0, symBinAddr: 0x10003C530, symSize: 0x60 }
  - { offsetInCU: 0x2BFDB, offset: 0x2BFDB, size: 0x8, addend: 0x0, symName: __ZNSt3__117__compressed_pairImNS_9allocatorIPNS_16__hash_node_baseIPNS_11__hash_nodeINS_17__hash_value_typeIc10piece_typeEEPvEEEEEEE5firstB8ue170006Ev, symObjAddr: 0x3BC30, symBinAddr: 0x10003C590, symSize: 0xE0 }
  - { offsetInCU: 0x2C001, offset: 0x2C001, size: 0x8, addend: 0x0, symName: __ZNSt3__112__hash_tableINS_17__hash_value_typeIc10piece_typeEENS_22__unordered_map_hasherIcS3_NS_4hashIcEENS_8equal_toIcEELb1EEENS_21__unordered_map_equalIcS3_S8_S6_Lb1EEENS_9allocatorIS3_EEE25__emplace_unique_key_argsIcJRKNS_21piecewise_construct_tENS_5tupleIJOcEEENSJ_IJEEEEEENS_4pairINS_15__hash_iteratorIPNS_11__hash_nodeIS3_PvEEEEbEERKT_DpOT0_, symObjAddr: 0x3BD10, symBinAddr: 0x10003C670, symSize: 0x1340 }
  - { offsetInCU: 0x2C109, offset: 0x2C109, size: 0x8, addend: 0x0, symName: __ZNKSt3__115__hash_iteratorIPNS_11__hash_nodeINS_17__hash_value_typeIc10piece_typeEEPvEEEptB8ue170006Ev, symObjAddr: 0x3D0A0, symBinAddr: 0x10003DA00, symSize: 0xF0 }
  - { offsetInCU: 0x2C12F, offset: 0x2C12F, size: 0x8, addend: 0x0, symName: __ZNSt3__112__hash_tableINS_17__hash_value_typeIc10piece_typeEENS_22__unordered_map_hasherIcS3_NS_4hashIcEENS_8equal_toIcEELb1EEENS_21__unordered_map_equalIcS3_S8_S6_Lb1EEENS_9allocatorIS3_EEE13hash_functionB8ue170006Ev, symObjAddr: 0x3D190, symBinAddr: 0x10003DAF0, symSize: 0xB0 }
  - { offsetInCU: 0x2C155, offset: 0x2C155, size: 0x8, addend: 0x0, symName: __ZNKSt3__122__unordered_map_hasherIcNS_17__hash_value_typeIc10piece_typeEENS_4hashIcEENS_8equal_toIcEELb1EEclB8ue170006ERKc, symObjAddr: 0x3D240, symBinAddr: 0x10003DBA0, symSize: 0x70 }
  - { offsetInCU: 0x2C18A, offset: 0x2C18A, size: 0x8, addend: 0x0, symName: __ZNKSt3__112__hash_tableINS_17__hash_value_typeIc10piece_typeEENS_22__unordered_map_hasherIcS3_NS_4hashIcEENS_8equal_toIcEELb1EEENS_21__unordered_map_equalIcS3_S8_S6_Lb1EEENS_9allocatorIS3_EEE12bucket_countB8ue170006Ev, symObjAddr: 0x3D2B0, symBinAddr: 0x10003DC10, symSize: 0xC0 }
  - { offsetInCU: 0x2C1B0, offset: 0x2C1B0, size: 0x8, addend: 0x0, symName: __ZNKSt3__110unique_ptrIA_PNS_16__hash_node_baseIPNS_11__hash_nodeINS_17__hash_value_typeIc10piece_typeEEPvEEEENS_25__bucket_list_deallocatorINS_9allocatorISA_EEEEEixB8ue170006Em, symObjAddr: 0x3D370, symBinAddr: 0x10003DCD0, symSize: 0x150 }
  - { offsetInCU: 0x2C1E5, offset: 0x2C1E5, size: 0x8, addend: 0x0, symName: __ZNKSt3__116__hash_node_baseIPNS_11__hash_nodeINS_17__hash_value_typeIc10piece_typeEEPvEEE6__hashB8ue170006Ev, symObjAddr: 0x3D4C0, symBinAddr: 0x10003DE20, symSize: 0xF0 }
  - { offsetInCU: 0x2C20B, offset: 0x2C20B, size: 0x8, addend: 0x0, symName: __ZNSt3__112__hash_tableINS_17__hash_value_typeIc10piece_typeEENS_22__unordered_map_hasherIcS3_NS_4hashIcEENS_8equal_toIcEELb1EEENS_21__unordered_map_equalIcS3_S8_S6_Lb1EEENS_9allocatorIS3_EEE6key_eqB8ue170006Ev, symObjAddr: 0x3D5B0, symBinAddr: 0x10003DF10, symSize: 0xB0 }
  - { offsetInCU: 0x2C231, offset: 0x2C231, size: 0x8, addend: 0x0, symName: __ZNKSt3__121__unordered_map_equalIcNS_17__hash_value_typeIc10piece_typeEENS_8equal_toIcEENS_4hashIcEELb1EEclB8ue170006ERKS3_RKc, symObjAddr: 0x3D660, symBinAddr: 0x10003DFC0, symSize: 0xE0 }
  - { offsetInCU: 0x2C275, offset: 0x2C275, size: 0x8, addend: 0x0, symName: __ZNSt3__112__hash_tableINS_17__hash_value_typeIc10piece_typeEENS_22__unordered_map_hasherIcS3_NS_4hashIcEENS_8equal_toIcEELb1EEENS_21__unordered_map_equalIcS3_S8_S6_Lb1EEENS_9allocatorIS3_EEE21__construct_node_hashIRKNS_21piecewise_construct_tEJNS_5tupleIJOcEEENSJ_IJEEEEEENS_10unique_ptrINS_11__hash_nodeIS3_PvEENS_22__hash_node_destructorINSC_ISQ_EEEEEEmOT_DpOT0_, symObjAddr: 0x3D740, symBinAddr: 0x10003E0A0, symSize: 0x590 }
  - { offsetInCU: 0x2C311, offset: 0x2C311, size: 0x8, addend: 0x0, symName: __ZNSt3__112__hash_tableINS_17__hash_value_typeIc10piece_typeEENS_22__unordered_map_hasherIcS3_NS_4hashIcEENS_8equal_toIcEELb1EEENS_21__unordered_map_equalIcS3_S8_S6_Lb1EEENS_9allocatorIS3_EEE4sizeB8ue170006Ev, symObjAddr: 0x3DCD0, symBinAddr: 0x10003E630, symSize: 0xC0 }
  - { offsetInCU: 0x2C337, offset: 0x2C337, size: 0x8, addend: 0x0, symName: __ZNSt3__112__hash_tableINS_17__hash_value_typeIc10piece_typeEENS_22__unordered_map_hasherIcS3_NS_4hashIcEENS_8equal_toIcEELb1EEENS_21__unordered_map_equalIcS3_S8_S6_Lb1EEENS_9allocatorIS3_EEE15max_load_factorB8ue170006Ev, symObjAddr: 0x3DD90, symBinAddr: 0x10003E6F0, symSize: 0xC0 }
  - { offsetInCU: 0x2C35D, offset: 0x2C35D, size: 0x8, addend: 0x0, symName: __ZNSt3__112__hash_tableINS_17__hash_value_typeIc10piece_typeEENS_22__unordered_map_hasherIcS3_NS_4hashIcEENS_8equal_toIcEELb1EEENS_21__unordered_map_equalIcS3_S8_S6_Lb1EEENS_9allocatorIS3_EEE15__rehash_uniqueB8ue170006Em, symObjAddr: 0x3DE50, symBinAddr: 0x10003E7B0, symSize: 0x60 }
  - { offsetInCU: 0x2C392, offset: 0x2C392, size: 0x8, addend: 0x0, symName: __ZNSt3__116__hash_node_baseIPNS_11__hash_nodeINS_17__hash_value_typeIc10piece_typeEEPvEEE5__ptrB8ue170006Ev, symObjAddr: 0x3DEB0, symBinAddr: 0x10003E810, symSize: 0x80 }
  - { offsetInCU: 0x2C3B8, offset: 0x2C3B8, size: 0x8, addend: 0x0, symName: __ZNKSt3__110unique_ptrINS_11__hash_nodeINS_17__hash_value_typeIc10piece_typeEEPvEENS_22__hash_node_destructorINS_9allocatorIS6_EEEEEptB8ue170006Ev, symObjAddr: 0x3DF30, symBinAddr: 0x10003E890, symSize: 0xC0 }
  - { offsetInCU: 0x2C3DE, offset: 0x2C3DE, size: 0x8, addend: 0x0, symName: __ZNKSt3__110unique_ptrINS_11__hash_nodeINS_17__hash_value_typeIc10piece_typeEEPvEENS_22__hash_node_destructorINS_9allocatorIS6_EEEEE3getB8ue170006Ev, symObjAddr: 0x3DFF0, symBinAddr: 0x10003E950, symSize: 0xC0 }
  - { offsetInCU: 0x2C404, offset: 0x2C404, size: 0x8, addend: 0x0, symName: __ZNSt3__110unique_ptrINS_11__hash_nodeINS_17__hash_value_typeIc10piece_typeEEPvEENS_22__hash_node_destructorINS_9allocatorIS6_EEEEE7releaseB8ue170006Ev, symObjAddr: 0x3E0B0, symBinAddr: 0x10003EA10, symSize: 0x140 }
  - { offsetInCU: 0x2C439, offset: 0x2C439, size: 0x8, addend: 0x0, symName: __ZNSt3__110unique_ptrINS_11__hash_nodeINS_17__hash_value_typeIc10piece_typeEEPvEENS_22__hash_node_destructorINS_9allocatorIS6_EEEEED1B8ue170006Ev, symObjAddr: 0x3E1F0, symBinAddr: 0x10003EB50, symSize: 0x50 }
  - { offsetInCU: 0x2C463, offset: 0x2C463, size: 0x8, addend: 0x0, symName: __ZNSt3__115__hash_iteratorIPNS_11__hash_nodeINS_17__hash_value_typeIc10piece_typeEEPvEEEC1B8ue170006EPNS_16__hash_node_baseIS7_EE, symObjAddr: 0x3E240, symBinAddr: 0x10003EBA0, symSize: 0x60 }
  - { offsetInCU: 0x2C4A2, offset: 0x2C4A2, size: 0x8, addend: 0x0, symName: __ZNSt3__14pairINS_15__hash_iteratorIPNS_11__hash_nodeINS_17__hash_value_typeIc10piece_typeEEPvEEEEbEC1B8ue170006IS9_RbLS6_0EEEOT_OT0_, symObjAddr: 0x3E2A0, symBinAddr: 0x10003EC00, symSize: 0x60 }
  - { offsetInCU: 0x2C500, offset: 0x2C500, size: 0x8, addend: 0x0, symName: __ZNSt3__117__compressed_pairImNS_22__unordered_map_hasherIcNS_17__hash_value_typeIc10piece_typeEENS_4hashIcEENS_8equal_toIcEELb1EEEE6secondB8ue170006Ev, symObjAddr: 0x3E300, symBinAddr: 0x10003EC60, symSize: 0xD0 }
  - { offsetInCU: 0x2C526, offset: 0x2C526, size: 0x8, addend: 0x0, symName: __ZNSt3__122__compressed_pair_elemINS_22__unordered_map_hasherIcNS_17__hash_value_typeIc10piece_typeEENS_4hashIcEENS_8equal_toIcEELb1EEELi1ELb1EE5__getB8ue170006Ev, symObjAddr: 0x3E3D0, symBinAddr: 0x10003ED30, symSize: 0x60 }
  - { offsetInCU: 0x2C54C, offset: 0x2C54C, size: 0x8, addend: 0x0, symName: __ZNKSt3__14hashIcEclB8ue170006Ec, symObjAddr: 0x3E430, symBinAddr: 0x10003ED90, symSize: 0x40 }
  - { offsetInCU: 0x2C581, offset: 0x2C581, size: 0x8, addend: 0x0, symName: __ZNKSt3__110unique_ptrIA_PNS_16__hash_node_baseIPNS_11__hash_nodeINS_17__hash_value_typeIc10piece_typeEEPvEEEENS_25__bucket_list_deallocatorINS_9allocatorISA_EEEEE11get_deleterB8ue170006Ev, symObjAddr: 0x3E470, symBinAddr: 0x10003EDD0, symSize: 0xC0 }
  - { offsetInCU: 0x2C5A7, offset: 0x2C5A7, size: 0x8, addend: 0x0, symName: __ZNKSt3__125__bucket_list_deallocatorINS_9allocatorIPNS_16__hash_node_baseIPNS_11__hash_nodeINS_17__hash_value_typeIc10piece_typeEEPvEEEEEEE4sizeB8ue170006Ev, symObjAddr: 0x3E530, symBinAddr: 0x10003EE90, symSize: 0xC0 }
  - { offsetInCU: 0x2C5CD, offset: 0x2C5CD, size: 0x8, addend: 0x0, symName: __ZNKSt3__117__compressed_pairIPPNS_16__hash_node_baseIPNS_11__hash_nodeINS_17__hash_value_typeIc10piece_typeEEPvEEEENS_25__bucket_list_deallocatorINS_9allocatorISA_EEEEE6secondB8ue170006Ev, symObjAddr: 0x3E5F0, symBinAddr: 0x10003EF50, symSize: 0xE0 }
  - { offsetInCU: 0x2C5F3, offset: 0x2C5F3, size: 0x8, addend: 0x0, symName: __ZNKSt3__122__compressed_pair_elemINS_25__bucket_list_deallocatorINS_9allocatorIPNS_16__hash_node_baseIPNS_11__hash_nodeINS_17__hash_value_typeIc10piece_typeEEPvEEEEEEEELi1ELb0EE5__getB8ue170006Ev, symObjAddr: 0x3E6D0, symBinAddr: 0x10003F030, symSize: 0x80 }
  - { offsetInCU: 0x2C619, offset: 0x2C619, size: 0x8, addend: 0x0, symName: __ZNKSt3__117__compressed_pairImNS_9allocatorIPNS_16__hash_node_baseIPNS_11__hash_nodeINS_17__hash_value_typeIc10piece_typeEEPvEEEEEEE5firstB8ue170006Ev, symObjAddr: 0x3E750, symBinAddr: 0x10003F0B0, symSize: 0xE0 }
  - { offsetInCU: 0x2C63F, offset: 0x2C63F, size: 0x8, addend: 0x0, symName: __ZNKSt3__117__compressed_pairIPPNS_16__hash_node_baseIPNS_11__hash_nodeINS_17__hash_value_typeIc10piece_typeEEPvEEEENS_25__bucket_list_deallocatorINS_9allocatorISA_EEEEE5firstB8ue170006Ev, symObjAddr: 0x3E830, symBinAddr: 0x10003F190, symSize: 0xE0 }
  - { offsetInCU: 0x2C665, offset: 0x2C665, size: 0x8, addend: 0x0, symName: __ZNKSt3__122__compressed_pair_elemIPPNS_16__hash_node_baseIPNS_11__hash_nodeINS_17__hash_value_typeIc10piece_typeEEPvEEEELi0ELb0EE5__getB8ue170006Ev, symObjAddr: 0x3E910, symBinAddr: 0x10003F270, symSize: 0x80 }
  - { offsetInCU: 0x2C68B, offset: 0x2C68B, size: 0x8, addend: 0x0, symName: __ZNSt3__117__compressed_pairIfNS_21__unordered_map_equalIcNS_17__hash_value_typeIc10piece_typeEENS_8equal_toIcEENS_4hashIcEELb1EEEE6secondB8ue170006Ev, symObjAddr: 0x3E990, symBinAddr: 0x10003F2F0, symSize: 0xD0 }
  - { offsetInCU: 0x2C6B1, offset: 0x2C6B1, size: 0x8, addend: 0x0, symName: __ZNSt3__122__compressed_pair_elemINS_21__unordered_map_equalIcNS_17__hash_value_typeIc10piece_typeEENS_8equal_toIcEENS_4hashIcEELb1EEELi1ELb1EE5__getB8ue170006Ev, symObjAddr: 0x3EA60, symBinAddr: 0x10003F3C0, symSize: 0x60 }
  - { offsetInCU: 0x2C6D7, offset: 0x2C6D7, size: 0x8, addend: 0x0, symName: __ZNKSt3__18equal_toIcEclB8ue170006ERKcS3_, symObjAddr: 0x3EAC0, symBinAddr: 0x10003F420, symSize: 0x60 }
  - { offsetInCU: 0x2C71B, offset: 0x2C71B, size: 0x8, addend: 0x0, symName: __ZNKSt3__117__hash_value_typeIc10piece_typeE11__get_valueB8ue170006Ev, symObjAddr: 0x3EB20, symBinAddr: 0x10003F480, symSize: 0x60 }
  - { offsetInCU: 0x2C741, offset: 0x2C741, size: 0x8, addend: 0x0, symName: __ZNSt3__116allocator_traitsINS_9allocatorINS_11__hash_nodeINS_17__hash_value_typeIc10piece_typeEEPvEEEEE8allocateB8ue170006ERS8_m, symObjAddr: 0x3EBD0, symBinAddr: 0x10003F530, symSize: 0x30 }
  - { offsetInCU: 0x2C774, offset: 0x2C774, size: 0x8, addend: 0x0, symName: __ZNSt3__122__hash_node_destructorINS_9allocatorINS_11__hash_nodeINS_17__hash_value_typeIc10piece_typeEEPvEEEEEC1B8ue170006ERS8_b, symObjAddr: 0x3EC00, symBinAddr: 0x10003F560, symSize: 0xA0 }
  - { offsetInCU: 0x2C7C2, offset: 0x2C7C2, size: 0x8, addend: 0x0, symName: __ZNSt3__110unique_ptrINS_11__hash_nodeINS_17__hash_value_typeIc10piece_typeEEPvEENS_22__hash_node_destructorINS_9allocatorIS6_EEEEEC1B8ue170006ILb1EvEEPS6_NS_16__dependent_typeINS_27__unique_ptr_deleter_sfinaeISA_EEXT_EE20__good_rval_ref_typeE, symObjAddr: 0x3ECA0, symBinAddr: 0x10003F600, symSize: 0x60 }
  - { offsetInCU: 0x2C813, offset: 0x2C813, size: 0x8, addend: 0x0, symName: __ZNSt3__116allocator_traitsINS_9allocatorINS_11__hash_nodeINS_17__hash_value_typeIc10piece_typeEEPvEEEEE9constructB8ue170006INS_4pairIKcS4_EEJRKNS_21piecewise_construct_tENS_5tupleIJOcEEENSH_IJEEEEvvEEvRS8_PT_DpOT0_, symObjAddr: 0x3ED00, symBinAddr: 0x10003F660, symSize: 0xC0 }
  - { offsetInCU: 0x2C890, offset: 0x2C890, size: 0x8, addend: 0x0, symName: __ZNSt3__110unique_ptrINS_11__hash_nodeINS_17__hash_value_typeIc10piece_typeEEPvEENS_22__hash_node_destructorINS_9allocatorIS6_EEEEE11get_deleterB8ue170006Ev, symObjAddr: 0x3EDC0, symBinAddr: 0x10003F720, symSize: 0xC0 }
  - { offsetInCU: 0x2C8B6, offset: 0x2C8B6, size: 0x8, addend: 0x0, symName: __ZNSt3__19allocatorINS_11__hash_nodeINS_17__hash_value_typeIc10piece_typeEEPvEEE8allocateB8ue170006Em, symObjAddr: 0x3EE80, symBinAddr: 0x10003F7E0, symSize: 0xB0 }
  - { offsetInCU: 0x2C8F5, offset: 0x2C8F5, size: 0x8, addend: 0x0, symName: __ZNSt3__116allocator_traitsINS_9allocatorINS_11__hash_nodeINS_17__hash_value_typeIc10piece_typeEEPvEEEEE8max_sizeB8ue170006IS8_vvEEmRKS8_, symObjAddr: 0x3EF30, symBinAddr: 0x10003F890, symSize: 0x50 }
  - { offsetInCU: 0x2C921, offset: 0x2C921, size: 0x8, addend: 0x0, symName: __ZNSt3__122__hash_node_destructorINS_9allocatorINS_11__hash_nodeINS_17__hash_value_typeIc10piece_typeEEPvEEEEEC2B8ue170006ERS8_b, symObjAddr: 0x3EF80, symBinAddr: 0x10003F8E0, symSize: 0xC0 }
  - { offsetInCU: 0x2C969, offset: 0x2C969, size: 0x8, addend: 0x0, symName: __ZNSt3__110unique_ptrINS_11__hash_nodeINS_17__hash_value_typeIc10piece_typeEEPvEENS_22__hash_node_destructorINS_9allocatorIS6_EEEEEC2B8ue170006ILb1EvEEPS6_NS_16__dependent_typeINS_27__unique_ptr_deleter_sfinaeISA_EEXT_EE20__good_rval_ref_typeE, symObjAddr: 0x3F040, symBinAddr: 0x10003F9A0, symSize: 0xA0 }
  - { offsetInCU: 0x2C9BA, offset: 0x2C9BA, size: 0x8, addend: 0x0, symName: __ZNSt3__117__compressed_pairIPNS_11__hash_nodeINS_17__hash_value_typeIc10piece_typeEEPvEENS_22__hash_node_destructorINS_9allocatorIS6_EEEEEC1B8ue170006IRS7_SB_EEOT_OT0_, symObjAddr: 0x3F0E0, symBinAddr: 0x10003FA40, symSize: 0x60 }
  - { offsetInCU: 0x2CA12, offset: 0x2CA12, size: 0x8, addend: 0x0, symName: __ZNSt3__117__compressed_pairIPNS_11__hash_nodeINS_17__hash_value_typeIc10piece_typeEEPvEENS_22__hash_node_destructorINS_9allocatorIS6_EEEEEC2B8ue170006IRS7_SB_EEOT_OT0_, symObjAddr: 0x3F140, symBinAddr: 0x10003FAA0, symSize: 0x140 }
  - { offsetInCU: 0x2CA6A, offset: 0x2CA6A, size: 0x8, addend: 0x0, symName: __ZNSt3__122__compressed_pair_elemIPNS_11__hash_nodeINS_17__hash_value_typeIc10piece_typeEEPvEELi0ELb0EEC2B8ue170006IRS7_vEEOT_, symObjAddr: 0x3F280, symBinAddr: 0x10003FBE0, symSize: 0x90 }
  - { offsetInCU: 0x2CAAC, offset: 0x2CAAC, size: 0x8, addend: 0x0, symName: __ZNSt3__122__compressed_pair_elemINS_22__hash_node_destructorINS_9allocatorINS_11__hash_nodeINS_17__hash_value_typeIc10piece_typeEEPvEEEEEELi1ELb0EEC2B8ue170006ISA_vEEOT_, symObjAddr: 0x3F310, symBinAddr: 0x10003FC70, symSize: 0x60 }
  - { offsetInCU: 0x2CAEE, offset: 0x2CAEE, size: 0x8, addend: 0x0, symName: __ZNSt3__14pairIKc10piece_typeEC1B8ue170006IJOcEJEEENS_21piecewise_construct_tENS_5tupleIJDpT_EEENS7_IJDpT0_EEE, symObjAddr: 0x3F400, symBinAddr: 0x10003FD60, symSize: 0x60 }
  - { offsetInCU: 0x2CB55, offset: 0x2CB55, size: 0x8, addend: 0x0, symName: __ZNSt3__14pairIKc10piece_typeEC1B8ue170006IJOcEJEJLm0EEJEEENS_21piecewise_construct_tERNS_5tupleIJDpT_EEERNS7_IJDpT0_EEENS_15__tuple_indicesIJXspT1_EEEENSG_IJXspT2_EEEE, symObjAddr: 0x3F460, symBinAddr: 0x10003FDC0, symSize: 0x50 }
  - { offsetInCU: 0x2CBE5, offset: 0x2CBE5, size: 0x8, addend: 0x0, symName: __ZNSt3__14pairIKc10piece_typeEC2B8ue170006IJOcEJEJLm0EEJEEENS_21piecewise_construct_tERNS_5tupleIJDpT_EEERNS7_IJDpT0_EEENS_15__tuple_indicesIJXspT1_EEEENSG_IJXspT2_EEEE, symObjAddr: 0x3F4B0, symBinAddr: 0x10003FE10, symSize: 0xB0 }
  - { offsetInCU: 0x2CC75, offset: 0x2CC75, size: 0x8, addend: 0x0, symName: __ZNSt3__112__tuple_leafILm0EOcLb0EE3getB8ue170006Ev, symObjAddr: 0x3F600, symBinAddr: 0x10003FF60, symSize: 0x70 }
  - { offsetInCU: 0x2CC9B, offset: 0x2CC9B, size: 0x8, addend: 0x0, symName: __ZNSt3__117__compressed_pairIPNS_11__hash_nodeINS_17__hash_value_typeIc10piece_typeEEPvEENS_22__hash_node_destructorINS_9allocatorIS6_EEEEE6secondB8ue170006Ev, symObjAddr: 0x3F670, symBinAddr: 0x10003FFD0, symSize: 0xE0 }
  - { offsetInCU: 0x2CCC1, offset: 0x2CCC1, size: 0x8, addend: 0x0, symName: __ZNSt3__122__compressed_pair_elemINS_22__hash_node_destructorINS_9allocatorINS_11__hash_nodeINS_17__hash_value_typeIc10piece_typeEEPvEEEEEELi1ELb0EE5__getB8ue170006Ev, symObjAddr: 0x3F750, symBinAddr: 0x1000400B0, symSize: 0x80 }
  - { offsetInCU: 0x2CCE7, offset: 0x2CCE7, size: 0x8, addend: 0x0, symName: __ZNSt3__117__compressed_pairImNS_22__unordered_map_hasherIcNS_17__hash_value_typeIc10piece_typeEENS_4hashIcEENS_8equal_toIcEELb1EEEE5firstB8ue170006Ev, symObjAddr: 0x3F7D0, symBinAddr: 0x100040130, symSize: 0xE0 }
  - { offsetInCU: 0x2CD0D, offset: 0x2CD0D, size: 0x8, addend: 0x0, symName: __ZNSt3__117__compressed_pairIfNS_21__unordered_map_equalIcNS_17__hash_value_typeIc10piece_typeEENS_8equal_toIcEENS_4hashIcEELb1EEEE5firstB8ue170006Ev, symObjAddr: 0x3F8B0, symBinAddr: 0x100040210, symSize: 0xE0 }
  - { offsetInCU: 0x2CD33, offset: 0x2CD33, size: 0x8, addend: 0x0, symName: __ZNSt3__112__hash_tableINS_17__hash_value_typeIc10piece_typeEENS_22__unordered_map_hasherIcS3_NS_4hashIcEENS_8equal_toIcEELb1EEENS_21__unordered_map_equalIcS3_S8_S6_Lb1EEENS_9allocatorIS3_EEE8__rehashILb1EEEvm, symObjAddr: 0x3F990, symBinAddr: 0x1000402F0, symSize: 0x400 }
  - { offsetInCU: 0x2CD83, offset: 0x2CD83, size: 0x8, addend: 0x0, symName: __ZNSt3__112__hash_tableINS_17__hash_value_typeIc10piece_typeEENS_22__unordered_map_hasherIcS3_NS_4hashIcEENS_8equal_toIcEELb1EEENS_21__unordered_map_equalIcS3_S8_S6_Lb1EEENS_9allocatorIS3_EEE11__do_rehashILb1EEEvm, symObjAddr: 0x3FD90, symBinAddr: 0x1000406F0, symSize: 0xB60 }
  - { offsetInCU: 0x2CE66, offset: 0x2CE66, size: 0x8, addend: 0x0, symName: __ZNSt3__110unique_ptrIA_PNS_16__hash_node_baseIPNS_11__hash_nodeINS_17__hash_value_typeIc10piece_typeEEPvEEEENS_25__bucket_list_deallocatorINS_9allocatorISA_EEEEE11get_deleterB8ue170006Ev, symObjAddr: 0x408F0, symBinAddr: 0x100041250, symSize: 0xC0 }
  - { offsetInCU: 0x2CE8C, offset: 0x2CE8C, size: 0x8, addend: 0x0, symName: __ZNSt3__110unique_ptrIA_PNS_16__hash_node_baseIPNS_11__hash_nodeINS_17__hash_value_typeIc10piece_typeEEPvEEEENS_25__bucket_list_deallocatorINS_9allocatorISA_EEEEE5resetB8ue170006IPSA_EENS_9enable_ifIXsr28_CheckArrayPointerConversionIT_EE5valueEvE4typeESK_, symObjAddr: 0x409B0, symBinAddr: 0x100041310, symSize: 0x1D0 }
  - { offsetInCU: 0x2CED9, offset: 0x2CED9, size: 0x8, addend: 0x0, symName: __ZNSt3__116allocator_traitsINS_9allocatorIPNS_16__hash_node_baseIPNS_11__hash_nodeINS_17__hash_value_typeIc10piece_typeEEPvEEEEEEE8allocateB8ue170006ERSC_m, symObjAddr: 0x40B80, symBinAddr: 0x1000414E0, symSize: 0x30 }
  - { offsetInCU: 0x2CF0C, offset: 0x2CF0C, size: 0x8, addend: 0x0, symName: __ZNSt3__19allocatorIPNS_16__hash_node_baseIPNS_11__hash_nodeINS_17__hash_value_typeIc10piece_typeEEPvEEEEE8allocateB8ue170006Em, symObjAddr: 0x40BB0, symBinAddr: 0x100041510, symSize: 0xB0 }
  - { offsetInCU: 0x2CF4B, offset: 0x2CF4B, size: 0x8, addend: 0x0, symName: __ZNSt3__116allocator_traitsINS_9allocatorIPNS_16__hash_node_baseIPNS_11__hash_nodeINS_17__hash_value_typeIc10piece_typeEEPvEEEEEEE8max_sizeB8ue170006ISC_vvEEmRKSC_, symObjAddr: 0x40C60, symBinAddr: 0x1000415C0, symSize: 0x50 }
  - { offsetInCU: 0x2CF77, offset: 0x2CF77, size: 0x8, addend: 0x0, symName: __ZNKSt3__117__compressed_pairIPNS_11__hash_nodeINS_17__hash_value_typeIc10piece_typeEEPvEENS_22__hash_node_destructorINS_9allocatorIS6_EEEEE5firstB8ue170006Ev, symObjAddr: 0x40CB0, symBinAddr: 0x100041610, symSize: 0xE0 }
  - { offsetInCU: 0x2CF9D, offset: 0x2CF9D, size: 0x8, addend: 0x0, symName: __ZNKSt3__122__compressed_pair_elemIPNS_11__hash_nodeINS_17__hash_value_typeIc10piece_typeEEPvEELi0ELb0EE5__getB8ue170006Ev, symObjAddr: 0x40D90, symBinAddr: 0x1000416F0, symSize: 0x80 }
  - { offsetInCU: 0x2CFC3, offset: 0x2CFC3, size: 0x8, addend: 0x0, symName: __ZNSt3__117__compressed_pairIPNS_11__hash_nodeINS_17__hash_value_typeIc10piece_typeEEPvEENS_22__hash_node_destructorINS_9allocatorIS6_EEEEE5firstB8ue170006Ev, symObjAddr: 0x40E10, symBinAddr: 0x100041770, symSize: 0xE0 }
  - { offsetInCU: 0x2CFE9, offset: 0x2CFE9, size: 0x8, addend: 0x0, symName: __ZNSt3__122__compressed_pair_elemIPNS_11__hash_nodeINS_17__hash_value_typeIc10piece_typeEEPvEELi0ELb0EE5__getB8ue170006Ev, symObjAddr: 0x40EF0, symBinAddr: 0x100041850, symSize: 0x80 }
  - { offsetInCU: 0x2D00F, offset: 0x2D00F, size: 0x8, addend: 0x0, symName: __ZNSt3__110unique_ptrINS_11__hash_nodeINS_17__hash_value_typeIc10piece_typeEEPvEENS_22__hash_node_destructorINS_9allocatorIS6_EEEEED2B8ue170006Ev, symObjAddr: 0x40F70, symBinAddr: 0x1000418D0, symSize: 0x60 }
  - { offsetInCU: 0x2D039, offset: 0x2D039, size: 0x8, addend: 0x0, symName: __ZNSt3__110unique_ptrINS_11__hash_nodeINS_17__hash_value_typeIc10piece_typeEEPvEENS_22__hash_node_destructorINS_9allocatorIS6_EEEEE5resetB8ue170006EPS6_, symObjAddr: 0x40FD0, symBinAddr: 0x100041930, symSize: 0x1D0 }
  - { offsetInCU: 0x2D07D, offset: 0x2D07D, size: 0x8, addend: 0x0, symName: __ZNSt3__122__hash_node_destructorINS_9allocatorINS_11__hash_nodeINS_17__hash_value_typeIc10piece_typeEEPvEEEEEclB8ue170006EPS7_, symObjAddr: 0x411A0, symBinAddr: 0x100041B00, symSize: 0x170 }
  - { offsetInCU: 0x2D0B2, offset: 0x2D0B2, size: 0x8, addend: 0x0, symName: __ZNSt3__115__hash_iteratorIPNS_11__hash_nodeINS_17__hash_value_typeIc10piece_typeEEPvEEEC2B8ue170006EPNS_16__hash_node_baseIS7_EE, symObjAddr: 0x41310, symBinAddr: 0x100041C70, symSize: 0x60 }
  - { offsetInCU: 0x2D0EB, offset: 0x2D0EB, size: 0x8, addend: 0x0, symName: __ZNSt3__14pairINS_15__hash_iteratorIPNS_11__hash_nodeINS_17__hash_value_typeIc10piece_typeEEPvEEEEbEC2B8ue170006IS9_RbLS6_0EEEOT_OT0_, symObjAddr: 0x41370, symBinAddr: 0x100041CD0, symSize: 0xC0 }
  - { offsetInCU: 0x2D149, offset: 0x2D149, size: 0x8, addend: 0x0, symName: __ZNSt3__15tupleIJOcEEC1B8ue170006IJcELi0EEEDpOT_, symObjAddr: 0x41430, symBinAddr: 0x100041D90, symSize: 0x60 }
  - { offsetInCU: 0x2D193, offset: 0x2D193, size: 0x8, addend: 0x0, symName: __ZNSt3__15tupleIJOcEEC2B8ue170006IJcELi0EEEDpOT_, symObjAddr: 0x41490, symBinAddr: 0x100041DF0, symSize: 0x80 }
  - { offsetInCU: 0x2D1DD, offset: 0x2D1DD, size: 0x8, addend: 0x0, symName: __ZNSt3__112__tuple_implINS_15__tuple_indicesIJLm0EEEEJOcEEC1B8ue170006IJLm0EEJS3_EJEJEJcEEENS1_IJXspT_EEEENS_13__tuple_typesIJDpT0_EEENS1_IJXspT1_EEEENS7_IJDpT2_EEEDpOT3_, symObjAddr: 0x41510, symBinAddr: 0x100041E70, symSize: 0x60 }
  - { offsetInCU: 0x2D272, offset: 0x2D272, size: 0x8, addend: 0x0, symName: __ZNSt3__112__tuple_implINS_15__tuple_indicesIJLm0EEEEJOcEEC2B8ue170006IJLm0EEJS3_EJEJEJcEEENS1_IJXspT_EEEENS_13__tuple_typesIJDpT0_EEENS1_IJXspT1_EEEENS7_IJDpT2_EEEDpOT3_, symObjAddr: 0x41570, symBinAddr: 0x100041ED0, symSize: 0xB0 }
  - { offsetInCU: 0x2D307, offset: 0x2D307, size: 0x8, addend: 0x0, symName: __ZNSt3__112__tuple_leafILm0EOcLb0EEC2B8ue170006IcvEEOT_, symObjAddr: 0x41620, symBinAddr: 0x100041F80, symSize: 0x80 }
  - { offsetInCU: 0x2D34A, offset: 0x2D34A, size: 0x8, addend: 0x0, symName: __ZNSt3__114pointer_traitsIPNS_17__hash_value_typeIc10piece_typeEEE10pointer_toB8ue170006ERS3_, symObjAddr: 0x416A0, symBinAddr: 0x100042000, symSize: 0x20 }
  - { offsetInCU: 0x2D36D, offset: 0x2D36D, size: 0x8, addend: 0x0, symName: __ZNSt3__113__atomic_baseIbLb0EE5storeB8ue170006EbNS_12memory_orderE, symObjAddr: 0x416C0, symBinAddr: 0x100042020, symSize: 0x90 }
  - { offsetInCU: 0x2D3AF, offset: 0x2D3AF, size: 0x8, addend: 0x0, symName: __ZNKSt3__112__hash_tableINS_17__hash_value_typeIy13zobrist_valueEENS_22__unordered_map_hasherIyS3_NS_4hashIyEENS_8equal_toIyEELb1EEENS_21__unordered_map_equalIyS3_S8_S6_Lb1EEENS_9allocatorIS3_EEE4sizeB8ue170006Ev, symObjAddr: 0x41820, symBinAddr: 0x100042180, symSize: 0xD0 }
  - { offsetInCU: 0x2D3D5, offset: 0x2D3D5, size: 0x8, addend: 0x0, symName: __ZNKSt3__117__compressed_pairImNS_22__unordered_map_hasherIyNS_17__hash_value_typeIy13zobrist_valueEENS_4hashIyEENS_8equal_toIyEELb1EEEE5firstB8ue170006Ev, symObjAddr: 0x418F0, symBinAddr: 0x100042250, symSize: 0xE0 }
  - { offsetInCU: 0x2D3FB, offset: 0x2D3FB, size: 0x8, addend: 0x0, symName: __ZNSt3__16threadC2IRFvP11thread_syncEJS3_EvEEOT_DpOT0_, symObjAddr: 0x419D0, symBinAddr: 0x100042330, symSize: 0x230 }
  - { offsetInCU: 0x2D486, offset: 0x2D486, size: 0x8, addend: 0x0, symName: __ZNSt3__110unique_ptrINS_15__thread_structENS_14default_deleteIS1_EEEC1B8ue170006ILb1EvEEPS1_, symObjAddr: 0x41C00, symBinAddr: 0x100042560, symSize: 0x60 }
  - { offsetInCU: 0x2D4C9, offset: 0x2D4C9, size: 0x8, addend: 0x0, symName: __ZNSt3__15tupleIJNS_10unique_ptrINS_15__thread_structENS_14default_deleteIS2_EEEEPFvP11thread_syncES7_EEC1B8ue170006IJS5_RS8_S7_ELi0EEEDpOT_, symObjAddr: 0x41C60, symBinAddr: 0x1000425C0, symSize: 0x70 }
  - { offsetInCU: 0x2D5E2, offset: 0x2D5E2, size: 0x8, addend: 0x0, symName: __ZNSt3__110unique_ptrINS_5tupleIJNS0_INS_15__thread_structENS_14default_deleteIS2_EEEEPFvP11thread_syncES7_EEENS3_ISA_EEEC1B8ue170006ILb1EvEEPSA_, symObjAddr: 0x41CD0, symBinAddr: 0x100042630, symSize: 0x60 }
  - { offsetInCU: 0x2D625, offset: 0x2D625, size: 0x8, addend: 0x0, symName: __ZNKSt3__110unique_ptrINS_5tupleIJNS0_INS_15__thread_structENS_14default_deleteIS2_EEEEPFvP11thread_syncES7_EEENS3_ISA_EEE3getB8ue170006Ev, symObjAddr: 0x41EE0, symBinAddr: 0x100042840, symSize: 0xC0 }
  - { offsetInCU: 0x2D64B, offset: 0x2D64B, size: 0x8, addend: 0x0, symName: __ZNSt3__110unique_ptrINS_5tupleIJNS0_INS_15__thread_structENS_14default_deleteIS2_EEEEPFvP11thread_syncES7_EEENS3_ISA_EEE7releaseB8ue170006Ev, symObjAddr: 0x41FA0, symBinAddr: 0x100042900, symSize: 0x140 }
  - { offsetInCU: 0x2D680, offset: 0x2D680, size: 0x8, addend: 0x0, symName: __ZNSt3__110unique_ptrINS_5tupleIJNS0_INS_15__thread_structENS_14default_deleteIS2_EEEEPFvP11thread_syncES7_EEENS3_ISA_EEED1B8ue170006Ev, symObjAddr: 0x420E0, symBinAddr: 0x100042A40, symSize: 0x50 }
  - { offsetInCU: 0x2D6AA, offset: 0x2D6AA, size: 0x8, addend: 0x0, symName: __ZNSt3__110unique_ptrINS_15__thread_structENS_14default_deleteIS1_EEED1B8ue170006Ev, symObjAddr: 0x42130, symBinAddr: 0x100042A90, symSize: 0x50 }
  - { offsetInCU: 0x2D6D4, offset: 0x2D6D4, size: 0x8, addend: 0x0, symName: __ZNSt3__110unique_ptrINS_15__thread_structENS_14default_deleteIS1_EEEC2B8ue170006ILb1EvEEPS1_, symObjAddr: 0x42180, symBinAddr: 0x100042AE0, symSize: 0x70 }
  - { offsetInCU: 0x2D717, offset: 0x2D717, size: 0x8, addend: 0x0, symName: __ZNSt3__117__compressed_pairIPNS_15__thread_structENS_14default_deleteIS1_EEEC1B8ue170006IRS2_NS_16__value_init_tagEEEOT_OT0_, symObjAddr: 0x421F0, symBinAddr: 0x100042B50, symSize: 0x60 }
  - { offsetInCU: 0x2D76F, offset: 0x2D76F, size: 0x8, addend: 0x0, symName: __ZNSt3__117__compressed_pairIPNS_15__thread_structENS_14default_deleteIS1_EEEC2B8ue170006IRS2_NS_16__value_init_tagEEEOT_OT0_, symObjAddr: 0x42250, symBinAddr: 0x100042BB0, symSize: 0xF0 }
  - { offsetInCU: 0x2D7C7, offset: 0x2D7C7, size: 0x8, addend: 0x0, symName: __ZNSt3__122__compressed_pair_elemIPNS_15__thread_structELi0ELb0EEC2B8ue170006IRS2_vEEOT_, symObjAddr: 0x42340, symBinAddr: 0x100042CA0, symSize: 0x90 }
  - { offsetInCU: 0x2D809, offset: 0x2D809, size: 0x8, addend: 0x0, symName: __ZNSt3__122__compressed_pair_elemINS_14default_deleteINS_15__thread_structEEELi1ELb1EEC2B8ue170006ENS_16__value_init_tagE, symObjAddr: 0x423D0, symBinAddr: 0x100042D30, symSize: 0x40 }
  - { offsetInCU: 0x2D83E, offset: 0x2D83E, size: 0x8, addend: 0x0, symName: __ZNSt3__15tupleIJNS_10unique_ptrINS_15__thread_structENS_14default_deleteIS2_EEEEPFvP11thread_syncES7_EEC2B8ue170006IJS5_RS8_S7_ELi0EEEDpOT_, symObjAddr: 0x42410, symBinAddr: 0x100042D70, symSize: 0xE0 }
  - { offsetInCU: 0x2D8B0, offset: 0x2D8B0, size: 0x8, addend: 0x0, symName: __ZNSt3__112__tuple_implINS_15__tuple_indicesIJLm0ELm1ELm2EEEEJNS_10unique_ptrINS_15__thread_structENS_14default_deleteIS4_EEEEPFvP11thread_syncES9_EEC1B8ue170006IJLm0ELm1ELm2EEJS7_SB_S9_EJEJEJS7_RSA_S9_EEENS1_IJXspT_EEEENS_13__tuple_typesIJDpT0_EEENS1_IJXspT1_EEEENSG_IJDpT2_EEEDpOT3_, symObjAddr: 0x424F0, symBinAddr: 0x100042E50, symSize: 0x70 }
  - { offsetInCU: 0x2D983, offset: 0x2D983, size: 0x8, addend: 0x0, symName: __ZNSt3__112__tuple_implINS_15__tuple_indicesIJLm0ELm1ELm2EEEEJNS_10unique_ptrINS_15__thread_structENS_14default_deleteIS4_EEEEPFvP11thread_syncES9_EEC2B8ue170006IJLm0ELm1ELm2EEJS7_SB_S9_EJEJEJS7_RSA_S9_EEENS1_IJXspT_EEEENS_13__tuple_typesIJDpT0_EEENS1_IJXspT1_EEEENSG_IJDpT2_EEEDpOT3_, symObjAddr: 0x42560, symBinAddr: 0x100042EC0, symSize: 0x190 }
  - { offsetInCU: 0x2DA56, offset: 0x2DA56, size: 0x8, addend: 0x0, symName: __ZNSt3__112__tuple_leafILm0ENS_10unique_ptrINS_15__thread_structENS_14default_deleteIS2_EEEELb0EEC2B8ue170006IS5_vEEOT_, symObjAddr: 0x426F0, symBinAddr: 0x100043050, symSize: 0x90 }
  - { offsetInCU: 0x2DA99, offset: 0x2DA99, size: 0x8, addend: 0x0, symName: __ZNSt3__112__tuple_leafILm1EPFvP11thread_syncELb0EEC2B8ue170006IRS3_vEEOT_, symObjAddr: 0x42780, symBinAddr: 0x1000430E0, symSize: 0x60 }
  - { offsetInCU: 0x2DADC, offset: 0x2DADC, size: 0x8, addend: 0x0, symName: __ZNSt3__112__tuple_leafILm2EP11thread_syncLb0EEC2B8ue170006IS2_vEEOT_, symObjAddr: 0x427E0, symBinAddr: 0x100043140, symSize: 0x90 }
  - { offsetInCU: 0x2DB1F, offset: 0x2DB1F, size: 0x8, addend: 0x0, symName: __ZNSt3__110unique_ptrINS_15__thread_structENS_14default_deleteIS1_EEEC1B8ue170006EOS4_, symObjAddr: 0x42870, symBinAddr: 0x1000431D0, symSize: 0x60 }
  - { offsetInCU: 0x2DB57, offset: 0x2DB57, size: 0x8, addend: 0x0, symName: __ZNSt3__110unique_ptrINS_15__thread_structENS_14default_deleteIS1_EEEC2B8ue170006EOS4_, symObjAddr: 0x428D0, symBinAddr: 0x100043230, symSize: 0xF0 }
  - { offsetInCU: 0x2DB8F, offset: 0x2DB8F, size: 0x8, addend: 0x0, symName: __ZNSt3__110unique_ptrINS_15__thread_structENS_14default_deleteIS1_EEE7releaseB8ue170006Ev, symObjAddr: 0x429C0, symBinAddr: 0x100043320, symSize: 0x140 }
  - { offsetInCU: 0x2DBC4, offset: 0x2DBC4, size: 0x8, addend: 0x0, symName: __ZNSt3__110unique_ptrINS_15__thread_structENS_14default_deleteIS1_EEE11get_deleterB8ue170006Ev, symObjAddr: 0x42B00, symBinAddr: 0x100043460, symSize: 0xB0 }
  - { offsetInCU: 0x2DBF6, offset: 0x2DBF6, size: 0x8, addend: 0x0, symName: __ZNSt3__117__compressed_pairIPNS_15__thread_structENS_14default_deleteIS1_EEEC1B8ue170006IS2_S4_EEOT_OT0_, symObjAddr: 0x42BB0, symBinAddr: 0x100043510, symSize: 0x60 }
  - { offsetInCU: 0x2DC4E, offset: 0x2DC4E, size: 0x8, addend: 0x0, symName: __ZNSt3__117__compressed_pairIPNS_15__thread_structENS_14default_deleteIS1_EEE5firstB8ue170006Ev, symObjAddr: 0x42C10, symBinAddr: 0x100043570, symSize: 0xE0 }
  - { offsetInCU: 0x2DC74, offset: 0x2DC74, size: 0x8, addend: 0x0, symName: __ZNSt3__122__compressed_pair_elemIPNS_15__thread_structELi0ELb0EE5__getB8ue170006Ev, symObjAddr: 0x42CF0, symBinAddr: 0x100043650, symSize: 0x80 }
  - { offsetInCU: 0x2DC9A, offset: 0x2DC9A, size: 0x8, addend: 0x0, symName: __ZNSt3__117__compressed_pairIPNS_15__thread_structENS_14default_deleteIS1_EEE6secondB8ue170006Ev, symObjAddr: 0x42D70, symBinAddr: 0x1000436D0, symSize: 0xD0 }
  - { offsetInCU: 0x2DCC0, offset: 0x2DCC0, size: 0x8, addend: 0x0, symName: __ZNSt3__122__compressed_pair_elemINS_14default_deleteINS_15__thread_structEEELi1ELb1EE5__getB8ue170006Ev, symObjAddr: 0x42E40, symBinAddr: 0x1000437A0, symSize: 0x60 }
  - { offsetInCU: 0x2DCE6, offset: 0x2DCE6, size: 0x8, addend: 0x0, symName: __ZNSt3__117__compressed_pairIPNS_15__thread_structENS_14default_deleteIS1_EEEC2B8ue170006IS2_S4_EEOT_OT0_, symObjAddr: 0x42EA0, symBinAddr: 0x100043800, symSize: 0x110 }
  - { offsetInCU: 0x2DD3E, offset: 0x2DD3E, size: 0x8, addend: 0x0, symName: __ZNSt3__122__compressed_pair_elemIPNS_15__thread_structELi0ELb0EEC2B8ue170006IS2_vEEOT_, symObjAddr: 0x42FB0, symBinAddr: 0x100043910, symSize: 0x90 }
  - { offsetInCU: 0x2DD80, offset: 0x2DD80, size: 0x8, addend: 0x0, symName: __ZNSt3__122__compressed_pair_elemINS_14default_deleteINS_15__thread_structEEELi1ELb1EEC2B8ue170006IS3_vEEOT_, symObjAddr: 0x43040, symBinAddr: 0x1000439A0, symSize: 0x40 }
  - { offsetInCU: 0x2DDC2, offset: 0x2DDC2, size: 0x8, addend: 0x0, symName: __ZNSt3__110unique_ptrINS_5tupleIJNS0_INS_15__thread_structENS_14default_deleteIS2_EEEEPFvP11thread_syncES7_EEENS3_ISA_EEEC2B8ue170006ILb1EvEEPSA_, symObjAddr: 0x43080, symBinAddr: 0x1000439E0, symSize: 0x70 }
  - { offsetInCU: 0x2DE05, offset: 0x2DE05, size: 0x8, addend: 0x0, symName: __ZNSt3__117__compressed_pairIPNS_5tupleIJNS_10unique_ptrINS_15__thread_structENS_14default_deleteIS3_EEEEPFvP11thread_syncES8_EEENS4_ISB_EEEC1B8ue170006IRSC_NS_16__value_init_tagEEEOT_OT0_, symObjAddr: 0x430F0, symBinAddr: 0x100043A50, symSize: 0x60 }
  - { offsetInCU: 0x2DE5D, offset: 0x2DE5D, size: 0x8, addend: 0x0, symName: __ZNSt3__117__compressed_pairIPNS_5tupleIJNS_10unique_ptrINS_15__thread_structENS_14default_deleteIS3_EEEEPFvP11thread_syncES8_EEENS4_ISB_EEEC2B8ue170006IRSC_NS_16__value_init_tagEEEOT_OT0_, symObjAddr: 0x43150, symBinAddr: 0x100043AB0, symSize: 0xF0 }
  - { offsetInCU: 0x2DEB5, offset: 0x2DEB5, size: 0x8, addend: 0x0, symName: __ZNSt3__122__compressed_pair_elemIPNS_5tupleIJNS_10unique_ptrINS_15__thread_structENS_14default_deleteIS3_EEEEPFvP11thread_syncES8_EEELi0ELb0EEC2B8ue170006IRSC_vEEOT_, symObjAddr: 0x43240, symBinAddr: 0x100043BA0, symSize: 0x90 }
  - { offsetInCU: 0x2DEF7, offset: 0x2DEF7, size: 0x8, addend: 0x0, symName: __ZNSt3__122__compressed_pair_elemINS_14default_deleteINS_5tupleIJNS_10unique_ptrINS_15__thread_structENS1_IS4_EEEEPFvP11thread_syncES8_EEEEELi1ELb1EEC2B8ue170006ENS_16__value_init_tagE, symObjAddr: 0x432D0, symBinAddr: 0x100043C30, symSize: 0x40 }
  - { offsetInCU: 0x2DF5F, offset: 0x2DF5F, size: 0x8, addend: 0x0, symName: __ZNSt3__121__thread_specific_ptrINS_15__thread_structEE11set_pointerEPS1_, symObjAddr: 0x43310, symBinAddr: 0x100043C70, symSize: 0x60 }
  - { offsetInCU: 0x2DF94, offset: 0x2DF94, size: 0x8, addend: 0x0, symName: __ZNSt3__112__tuple_leafILm0ENS_10unique_ptrINS_15__thread_structENS_14default_deleteIS2_EEEELb0EE3getB8ue170006Ev, symObjAddr: 0x43560, symBinAddr: 0x100043EC0, symSize: 0x80 }
  - { offsetInCU: 0x2DFBA, offset: 0x2DFBA, size: 0x8, addend: 0x0, symName: __ZNSt3__112__tuple_leafILm1EPFvP11thread_syncELb0EE3getB8ue170006Ev, symObjAddr: 0x43820, symBinAddr: 0x100044180, symSize: 0x80 }
  - { offsetInCU: 0x2DFE0, offset: 0x2DFE0, size: 0x8, addend: 0x0, symName: __ZNSt3__112__tuple_leafILm2EP11thread_syncLb0EE3getB8ue170006Ev, symObjAddr: 0x438A0, symBinAddr: 0x100044200, symSize: 0x80 }
  - { offsetInCU: 0x2E006, offset: 0x2E006, size: 0x8, addend: 0x0, symName: __ZNKSt3__117__compressed_pairIPNS_5tupleIJNS_10unique_ptrINS_15__thread_structENS_14default_deleteIS3_EEEEPFvP11thread_syncES8_EEENS4_ISB_EEE5firstB8ue170006Ev, symObjAddr: 0x43920, symBinAddr: 0x100044280, symSize: 0xE0 }
  - { offsetInCU: 0x2E02C, offset: 0x2E02C, size: 0x8, addend: 0x0, symName: __ZNKSt3__122__compressed_pair_elemIPNS_5tupleIJNS_10unique_ptrINS_15__thread_structENS_14default_deleteIS3_EEEEPFvP11thread_syncES8_EEELi0ELb0EE5__getB8ue170006Ev, symObjAddr: 0x43A00, symBinAddr: 0x100044360, symSize: 0x80 }
  - { offsetInCU: 0x2E052, offset: 0x2E052, size: 0x8, addend: 0x0, symName: __ZNSt3__117__compressed_pairIPNS_5tupleIJNS_10unique_ptrINS_15__thread_structENS_14default_deleteIS3_EEEEPFvP11thread_syncES8_EEENS4_ISB_EEE5firstB8ue170006Ev, symObjAddr: 0x43A80, symBinAddr: 0x1000443E0, symSize: 0xE0 }
  - { offsetInCU: 0x2E078, offset: 0x2E078, size: 0x8, addend: 0x0, symName: __ZNSt3__122__compressed_pair_elemIPNS_5tupleIJNS_10unique_ptrINS_15__thread_structENS_14default_deleteIS3_EEEEPFvP11thread_syncES8_EEELi0ELb0EE5__getB8ue170006Ev, symObjAddr: 0x43B60, symBinAddr: 0x1000444C0, symSize: 0x80 }
  - { offsetInCU: 0x2E09E, offset: 0x2E09E, size: 0x8, addend: 0x0, symName: __ZNSt3__110unique_ptrINS_5tupleIJNS0_INS_15__thread_structENS_14default_deleteIS2_EEEEPFvP11thread_syncES7_EEENS3_ISA_EEED2B8ue170006Ev, symObjAddr: 0x43BE0, symBinAddr: 0x100044540, symSize: 0x60 }
  - { offsetInCU: 0x2E0C8, offset: 0x2E0C8, size: 0x8, addend: 0x0, symName: __ZNSt3__110unique_ptrINS_5tupleIJNS0_INS_15__thread_structENS_14default_deleteIS2_EEEEPFvP11thread_syncES7_EEENS3_ISA_EEE5resetB8ue170006EPSA_, symObjAddr: 0x43C40, symBinAddr: 0x1000445A0, symSize: 0x1B0 }
  - { offsetInCU: 0x2E10C, offset: 0x2E10C, size: 0x8, addend: 0x0, symName: __ZNSt3__117__compressed_pairIPNS_5tupleIJNS_10unique_ptrINS_15__thread_structENS_14default_deleteIS3_EEEEPFvP11thread_syncES8_EEENS4_ISB_EEE6secondB8ue170006Ev, symObjAddr: 0x43DF0, symBinAddr: 0x100044750, symSize: 0xD0 }
  - { offsetInCU: 0x2E132, offset: 0x2E132, size: 0x8, addend: 0x0, symName: __ZNKSt3__114default_deleteINS_5tupleIJNS_10unique_ptrINS_15__thread_structENS0_IS3_EEEEPFvP11thread_syncES7_EEEEclB8ue170006EPSA_, symObjAddr: 0x43EC0, symBinAddr: 0x100044820, symSize: 0x90 }
  - { offsetInCU: 0x2E166, offset: 0x2E166, size: 0x8, addend: 0x0, symName: __ZNSt3__122__compressed_pair_elemINS_14default_deleteINS_5tupleIJNS_10unique_ptrINS_15__thread_structENS1_IS4_EEEEPFvP11thread_syncES8_EEEEELi1ELb1EE5__getB8ue170006Ev, symObjAddr: 0x43F50, symBinAddr: 0x1000448B0, symSize: 0x60 }
  - { offsetInCU: 0x2E18C, offset: 0x2E18C, size: 0x8, addend: 0x0, symName: __ZNSt3__15tupleIJNS_10unique_ptrINS_15__thread_structENS_14default_deleteIS2_EEEEPFvP11thread_syncES7_EED1Ev, symObjAddr: 0x43FB0, symBinAddr: 0x100044910, symSize: 0x50 }
  - { offsetInCU: 0x2E1B9, offset: 0x2E1B9, size: 0x8, addend: 0x0, symName: __ZNSt3__15tupleIJNS_10unique_ptrINS_15__thread_structENS_14default_deleteIS2_EEEEPFvP11thread_syncES7_EED2Ev, symObjAddr: 0x44000, symBinAddr: 0x100044960, symSize: 0x50 }
  - { offsetInCU: 0x2E1E6, offset: 0x2E1E6, size: 0x8, addend: 0x0, symName: __ZNSt3__112__tuple_implINS_15__tuple_indicesIJLm0ELm1ELm2EEEEJNS_10unique_ptrINS_15__thread_structENS_14default_deleteIS4_EEEEPFvP11thread_syncES9_EED1Ev, symObjAddr: 0x44050, symBinAddr: 0x1000449B0, symSize: 0x50 }
  - { offsetInCU: 0x2E213, offset: 0x2E213, size: 0x8, addend: 0x0, symName: __ZNSt3__112__tuple_implINS_15__tuple_indicesIJLm0ELm1ELm2EEEEJNS_10unique_ptrINS_15__thread_structENS_14default_deleteIS4_EEEEPFvP11thread_syncES9_EED2Ev, symObjAddr: 0x440A0, symBinAddr: 0x100044A00, symSize: 0x50 }
  - { offsetInCU: 0x2E240, offset: 0x2E240, size: 0x8, addend: 0x0, symName: __ZNSt3__112__tuple_leafILm0ENS_10unique_ptrINS_15__thread_structENS_14default_deleteIS2_EEEELb0EED2Ev, symObjAddr: 0x440F0, symBinAddr: 0x100044A50, symSize: 0x50 }
  - { offsetInCU: 0x2E26D, offset: 0x2E26D, size: 0x8, addend: 0x0, symName: __ZNSt3__110unique_ptrINS_15__thread_structENS_14default_deleteIS1_EEED2B8ue170006Ev, symObjAddr: 0x44140, symBinAddr: 0x100044AA0, symSize: 0x60 }
  - { offsetInCU: 0x2E297, offset: 0x2E297, size: 0x8, addend: 0x0, symName: __ZNSt3__110unique_ptrINS_15__thread_structENS_14default_deleteIS1_EEE5resetB8ue170006EPS1_, symObjAddr: 0x441A0, symBinAddr: 0x100044B00, symSize: 0x1B0 }
  - { offsetInCU: 0x2E2DB, offset: 0x2E2DB, size: 0x8, addend: 0x0, symName: __ZNKSt3__114default_deleteINS_15__thread_structEEclB8ue170006EPS1_, symObjAddr: 0x44350, symBinAddr: 0x100044CB0, symSize: 0x90 }
  - { offsetInCU: 0x2E30F, offset: 0x2E30F, size: 0x8, addend: 0x0, symName: __ZNKSt3__113__atomic_baseIbLb0EE4loadB8ue170006ENS_12memory_orderE, symObjAddr: 0x443E0, symBinAddr: 0x100044D40, symSize: 0x60 }
...
